Archive member included to satisfy reference by file (symbol)

c:/users/yaxing.chen/downloads/env_released_1.2.0/env/tools/gnu_gcc/arm_gcc/mingw/bin/../lib/gcc/arm-none-eabi/5.4.1/../../../../arm-none-eabi/lib/armv7e-m/fpu/fpv5-d16\libc.a(lib_a-assert.o)
                              build\board\MCUX_Config\clock_config.o (__assert_func)
c:/users/yaxing.chen/downloads/env_released_1.2.0/env/tools/gnu_gcc/arm_gcc/mingw/bin/../lib/gcc/arm-none-eabi/5.4.1/../../../../arm-none-eabi/lib/armv7e-m/fpu/fpv5-d16\libc.a(lib_a-fclose.o)
                              build\kernel\components\libc\compilers\newlib\stdio.o (fclose)
c:/users/yaxing.chen/downloads/env_released_1.2.0/env/tools/gnu_gcc/arm_gcc/mingw/bin/../lib/gcc/arm-none-eabi/5.4.1/../../../../arm-none-eabi/lib/armv7e-m/fpu/fpv5-d16\libc.a(lib_a-fflush.o)
                              c:/users/yaxing.chen/downloads/env_released_1.2.0/env/tools/gnu_gcc/arm_gcc/mingw/bin/../lib/gcc/arm-none-eabi/5.4.1/../../../../arm-none-eabi/lib/armv7e-m/fpu/fpv5-d16\libc.a(lib_a-fclose.o) (__sflush_r)
c:/users/yaxing.chen/downloads/env_released_1.2.0/env/tools/gnu_gcc/arm_gcc/mingw/bin/../lib/gcc/arm-none-eabi/5.4.1/../../../../arm-none-eabi/lib/armv7e-m/fpu/fpv5-d16\libc.a(lib_a-fileno.o)
                              build\kernel\components\libc\compilers\newlib\stdio.o (fileno)
c:/users/yaxing.chen/downloads/env_released_1.2.0/env/tools/gnu_gcc/arm_gcc/mingw/bin/../lib/gcc/arm-none-eabi/5.4.1/../../../../arm-none-eabi/lib/armv7e-m/fpu/fpv5-d16\libc.a(lib_a-findfp.o)
                              c:/users/yaxing.chen/downloads/env_released_1.2.0/env/tools/gnu_gcc/arm_gcc/mingw/bin/../lib/gcc/arm-none-eabi/5.4.1/../../../../arm-none-eabi/lib/armv7e-m/fpu/fpv5-d16\libc.a(lib_a-fclose.o) (__sinit)
c:/users/yaxing.chen/downloads/env_released_1.2.0/env/tools/gnu_gcc/arm_gcc/mingw/bin/../lib/gcc/arm-none-eabi/5.4.1/../../../../arm-none-eabi/lib/armv7e-m/fpu/fpv5-d16\libc.a(lib_a-fiprintf.o)
                              c:/users/yaxing.chen/downloads/env_released_1.2.0/env/tools/gnu_gcc/arm_gcc/mingw/bin/../lib/gcc/arm-none-eabi/5.4.1/../../../../arm-none-eabi/lib/armv7e-m/fpu/fpv5-d16\libc.a(lib_a-assert.o) (fiprintf)
c:/users/yaxing.chen/downloads/env_released_1.2.0/env/tools/gnu_gcc/arm_gcc/mingw/bin/../lib/gcc/arm-none-eabi/5.4.1/../../../../arm-none-eabi/lib/armv7e-m/fpu/fpv5-d16\libc.a(lib_a-fopen.o)
                              build\kernel\components\libc\compilers\newlib\stdio.o (fopen)
c:/users/yaxing.chen/downloads/env_released_1.2.0/env/tools/gnu_gcc/arm_gcc/mingw/bin/../lib/gcc/arm-none-eabi/5.4.1/../../../../arm-none-eabi/lib/armv7e-m/fpu/fpv5-d16\libc.a(lib_a-fseek.o)
                              c:/users/yaxing.chen/downloads/env_released_1.2.0/env/tools/gnu_gcc/arm_gcc/mingw/bin/../lib/gcc/arm-none-eabi/5.4.1/../../../../arm-none-eabi/lib/armv7e-m/fpu/fpv5-d16\libc.a(lib_a-fopen.o) (_fseek_r)
c:/users/yaxing.chen/downloads/env_released_1.2.0/env/tools/gnu_gcc/arm_gcc/mingw/bin/../lib/gcc/arm-none-eabi/5.4.1/../../../../arm-none-eabi/lib/armv7e-m/fpu/fpv5-d16\libc.a(lib_a-fseeko.o)
                              c:/users/yaxing.chen/downloads/env_released_1.2.0/env/tools/gnu_gcc/arm_gcc/mingw/bin/../lib/gcc/arm-none-eabi/5.4.1/../../../../arm-none-eabi/lib/armv7e-m/fpu/fpv5-d16\libc.a(lib_a-fseek.o) (_fseeko_r)
c:/users/yaxing.chen/downloads/env_released_1.2.0/env/tools/gnu_gcc/arm_gcc/mingw/bin/../lib/gcc/arm-none-eabi/5.4.1/../../../../arm-none-eabi/lib/armv7e-m/fpu/fpv5-d16\libc.a(lib_a-fwalk.o)
                              c:/users/yaxing.chen/downloads/env_released_1.2.0/env/tools/gnu_gcc/arm_gcc/mingw/bin/../lib/gcc/arm-none-eabi/5.4.1/../../../../arm-none-eabi/lib/armv7e-m/fpu/fpv5-d16\libc.a(lib_a-findfp.o) (_fwalk)
c:/users/yaxing.chen/downloads/env_released_1.2.0/env/tools/gnu_gcc/arm_gcc/mingw/bin/../lib/gcc/arm-none-eabi/5.4.1/../../../../arm-none-eabi/lib/armv7e-m/fpu/fpv5-d16\libc.a(lib_a-impure.o)
                              build\kernel\components\libc\compilers\newlib\stdio.o (_global_impure_ptr)
c:/users/yaxing.chen/downloads/env_released_1.2.0/env/tools/gnu_gcc/arm_gcc/mingw/bin/../lib/gcc/arm-none-eabi/5.4.1/../../../../arm-none-eabi/lib/armv7e-m/fpu/fpv5-d16\libc.a(lib_a-makebuf.o)
                              c:/users/yaxing.chen/downloads/env_released_1.2.0/env/tools/gnu_gcc/arm_gcc/mingw/bin/../lib/gcc/arm-none-eabi/5.4.1/../../../../arm-none-eabi/lib/armv7e-m/fpu/fpv5-d16\libc.a(lib_a-fseeko.o) (__smakebuf_r)
c:/users/yaxing.chen/downloads/env_released_1.2.0/env/tools/gnu_gcc/arm_gcc/mingw/bin/../lib/gcc/arm-none-eabi/5.4.1/../../../../arm-none-eabi/lib/armv7e-m/fpu/fpv5-d16\libc.a(lib_a-malloc.o)
                              libraries\MIMXRT1064\MIMXRT1064\drivers\fsl_common.o (malloc)
c:/users/yaxing.chen/downloads/env_released_1.2.0/env/tools/gnu_gcc/arm_gcc/mingw/bin/../lib/gcc/arm-none-eabi/5.4.1/../../../../arm-none-eabi/lib/armv7e-m/fpu/fpv5-d16\libc.a(lib_a-memcmp.o)
                              build\kernel\components\finsh\shell.o (memcmp)
c:/users/yaxing.chen/downloads/env_released_1.2.0/env/tools/gnu_gcc/arm_gcc/mingw/bin/../lib/gcc/arm-none-eabi/5.4.1/../../../../arm-none-eabi/lib/armv7e-m/fpu/fpv5-d16\libc.a(lib_a-memcpy.o)
                              build\kernel\components\drivers\src\ringbuffer.o (memcpy)
c:/users/yaxing.chen/downloads/env_released_1.2.0/env/tools/gnu_gcc/arm_gcc/mingw/bin/../lib/gcc/arm-none-eabi/5.4.1/../../../../arm-none-eabi/lib/armv7e-m/fpu/fpv5-d16\libc.a(lib_a-memset.o)
                              build\kernel\components\finsh\shell.o (memset)
c:/users/yaxing.chen/downloads/env_released_1.2.0/env/tools/gnu_gcc/arm_gcc/mingw/bin/../lib/gcc/arm-none-eabi/5.4.1/../../../../arm-none-eabi/lib/armv7e-m/fpu/fpv5-d16\libc.a(lib_a-refill.o)
                              c:/users/yaxing.chen/downloads/env_released_1.2.0/env/tools/gnu_gcc/arm_gcc/mingw/bin/../lib/gcc/arm-none-eabi/5.4.1/../../../../arm-none-eabi/lib/armv7e-m/fpu/fpv5-d16\libc.a(lib_a-fseeko.o) (__srefill_r)
c:/users/yaxing.chen/downloads/env_released_1.2.0/env/tools/gnu_gcc/arm_gcc/mingw/bin/../lib/gcc/arm-none-eabi/5.4.1/../../../../arm-none-eabi/lib/armv7e-m/fpu/fpv5-d16\libc.a(lib_a-setvbuf.o)
                              build\kernel\components\libc\compilers\newlib\stdio.o (setvbuf)
c:/users/yaxing.chen/downloads/env_released_1.2.0/env/tools/gnu_gcc/arm_gcc/mingw/bin/../lib/gcc/arm-none-eabi/5.4.1/../../../../arm-none-eabi/lib/armv7e-m/fpu/fpv5-d16\libc.a(lib_a-snprintf.o)
                              build\kernel\components\libc\compilers\newlib\stdio.o (snprintf)
c:/users/yaxing.chen/downloads/env_released_1.2.0/env/tools/gnu_gcc/arm_gcc/mingw/bin/../lib/gcc/arm-none-eabi/5.4.1/../../../../arm-none-eabi/lib/armv7e-m/fpu/fpv5-d16\libc.a(lib_a-stdio.o)
                              c:/users/yaxing.chen/downloads/env_released_1.2.0/env/tools/gnu_gcc/arm_gcc/mingw/bin/../lib/gcc/arm-none-eabi/5.4.1/../../../../arm-none-eabi/lib/armv7e-m/fpu/fpv5-d16\libc.a(lib_a-findfp.o) (__sread)
c:/users/yaxing.chen/downloads/env_released_1.2.0/env/tools/gnu_gcc/arm_gcc/mingw/bin/../lib/gcc/arm-none-eabi/5.4.1/../../../../arm-none-eabi/lib/armv7e-m/fpu/fpv5-d16\libc.a(lib_a-strcat.o)
                              build\kernel\components\finsh\shell.o (strcat)
c:/users/yaxing.chen/downloads/env_released_1.2.0/env/tools/gnu_gcc/arm_gcc/mingw/bin/../lib/gcc/arm-none-eabi/5.4.1/../../../../arm-none-eabi/lib/armv7e-m/fpu/fpv5-d16\libc.a(lib_a-strcpy.o)
                              build\kernel\components\finsh\shell.o (strcpy)
c:/users/yaxing.chen/downloads/env_released_1.2.0/env/tools/gnu_gcc/arm_gcc/mingw/bin/../lib/gcc/arm-none-eabi/5.4.1/../../../../arm-none-eabi/lib/armv7e-m/fpu/fpv5-d16\libc.a(lib_a-strlen.o)
                              build\kernel\components\finsh\shell.o (strlen)
c:/users/yaxing.chen/downloads/env_released_1.2.0/env/tools/gnu_gcc/arm_gcc/mingw/bin/../lib/gcc/arm-none-eabi/5.4.1/../../../../arm-none-eabi/lib/armv7e-m/fpu/fpv5-d16\libc.a(lib_a-strncmp.o)
                              build\kernel\components\finsh\cmd.o (strncmp)
c:/users/yaxing.chen/downloads/env_released_1.2.0/env/tools/gnu_gcc/arm_gcc/mingw/bin/../lib/gcc/arm-none-eabi/5.4.1/../../../../arm-none-eabi/lib/armv7e-m/fpu/fpv5-d16\libc.a(lib_a-strncpy.o)
                              build\kernel\components\finsh\shell.o (strncpy)
c:/users/yaxing.chen/downloads/env_released_1.2.0/env/tools/gnu_gcc/arm_gcc/mingw/bin/../lib/gcc/arm-none-eabi/5.4.1/../../../../arm-none-eabi/lib/armv7e-m/fpu/fpv5-d16\libc.a(lib_a-svfprintf.o)
                              c:/users/yaxing.chen/downloads/env_released_1.2.0/env/tools/gnu_gcc/arm_gcc/mingw/bin/../lib/gcc/arm-none-eabi/5.4.1/../../../../arm-none-eabi/lib/armv7e-m/fpu/fpv5-d16\libc.a(lib_a-snprintf.o) (_svfprintf_r)
c:/users/yaxing.chen/downloads/env_released_1.2.0/env/tools/gnu_gcc/arm_gcc/mingw/bin/../lib/gcc/arm-none-eabi/5.4.1/../../../../arm-none-eabi/lib/armv7e-m/fpu/fpv5-d16\libc.a(lib_a-vfiprintf.o)
                              c:/users/yaxing.chen/downloads/env_released_1.2.0/env/tools/gnu_gcc/arm_gcc/mingw/bin/../lib/gcc/arm-none-eabi/5.4.1/../../../../arm-none-eabi/lib/armv7e-m/fpu/fpv5-d16\libc.a(lib_a-fiprintf.o) (_vfiprintf_r)
c:/users/yaxing.chen/downloads/env_released_1.2.0/env/tools/gnu_gcc/arm_gcc/mingw/bin/../lib/gcc/arm-none-eabi/5.4.1/../../../../arm-none-eabi/lib/armv7e-m/fpu/fpv5-d16\libc.a(lib_a-wsetup.o)
                              c:/users/yaxing.chen/downloads/env_released_1.2.0/env/tools/gnu_gcc/arm_gcc/mingw/bin/../lib/gcc/arm-none-eabi/5.4.1/../../../../arm-none-eabi/lib/armv7e-m/fpu/fpv5-d16\libc.a(lib_a-vfiprintf.o) (__swsetup_r)
c:/users/yaxing.chen/downloads/env_released_1.2.0/env/tools/gnu_gcc/arm_gcc/mingw/bin/../lib/gcc/arm-none-eabi/5.4.1/../../../../arm-none-eabi/lib/armv7e-m/fpu/fpv5-d16\libc.a(lib_a-dtoa.o)
                              c:/users/yaxing.chen/downloads/env_released_1.2.0/env/tools/gnu_gcc/arm_gcc/mingw/bin/../lib/gcc/arm-none-eabi/5.4.1/../../../../arm-none-eabi/lib/armv7e-m/fpu/fpv5-d16\libc.a(lib_a-svfprintf.o) (_dtoa_r)
c:/users/yaxing.chen/downloads/env_released_1.2.0/env/tools/gnu_gcc/arm_gcc/mingw/bin/../lib/gcc/arm-none-eabi/5.4.1/../../../../arm-none-eabi/lib/armv7e-m/fpu/fpv5-d16\libc.a(lib_a-flags.o)
                              c:/users/yaxing.chen/downloads/env_released_1.2.0/env/tools/gnu_gcc/arm_gcc/mingw/bin/../lib/gcc/arm-none-eabi/5.4.1/../../../../arm-none-eabi/lib/armv7e-m/fpu/fpv5-d16\libc.a(lib_a-fopen.o) (__sflags)
c:/users/yaxing.chen/downloads/env_released_1.2.0/env/tools/gnu_gcc/arm_gcc/mingw/bin/../lib/gcc/arm-none-eabi/5.4.1/../../../../arm-none-eabi/lib/armv7e-m/fpu/fpv5-d16\libc.a(lib_a-fputwc.o)
                              c:/users/yaxing.chen/downloads/env_released_1.2.0/env/tools/gnu_gcc/arm_gcc/mingw/bin/../lib/gcc/arm-none-eabi/5.4.1/../../../../arm-none-eabi/lib/armv7e-m/fpu/fpv5-d16\libc.a(lib_a-vfiprintf.o) (_fputwc_r)
c:/users/yaxing.chen/downloads/env_released_1.2.0/env/tools/gnu_gcc/arm_gcc/mingw/bin/../lib/gcc/arm-none-eabi/5.4.1/../../../../arm-none-eabi/lib/armv7e-m/fpu/fpv5-d16\libc.a(lib_a-fvwrite.o)
                              c:/users/yaxing.chen/downloads/env_released_1.2.0/env/tools/gnu_gcc/arm_gcc/mingw/bin/../lib/gcc/arm-none-eabi/5.4.1/../../../../arm-none-eabi/lib/armv7e-m/fpu/fpv5-d16\libc.a(lib_a-vfiprintf.o) (__sfvwrite_r)
c:/users/yaxing.chen/downloads/env_released_1.2.0/env/tools/gnu_gcc/arm_gcc/mingw/bin/../lib/gcc/arm-none-eabi/5.4.1/../../../../arm-none-eabi/lib/armv7e-m/fpu/fpv5-d16\libc.a(lib_a-locale.o)
                              c:/users/yaxing.chen/downloads/env_released_1.2.0/env/tools/gnu_gcc/arm_gcc/mingw/bin/../lib/gcc/arm-none-eabi/5.4.1/../../../../arm-none-eabi/lib/armv7e-m/fpu/fpv5-d16\libc.a(lib_a-fputwc.o) (__locale_mb_cur_max)
c:/users/yaxing.chen/downloads/env_released_1.2.0/env/tools/gnu_gcc/arm_gcc/mingw/bin/../lib/gcc/arm-none-eabi/5.4.1/../../../../arm-none-eabi/lib/armv7e-m/fpu/fpv5-d16\libc.a(lib_a-localeconv.o)
                              c:/users/yaxing.chen/downloads/env_released_1.2.0/env/tools/gnu_gcc/arm_gcc/mingw/bin/../lib/gcc/arm-none-eabi/5.4.1/../../../../arm-none-eabi/lib/armv7e-m/fpu/fpv5-d16\libc.a(lib_a-svfprintf.o) (_localeconv_r)
c:/users/yaxing.chen/downloads/env_released_1.2.0/env/tools/gnu_gcc/arm_gcc/mingw/bin/../lib/gcc/arm-none-eabi/5.4.1/../../../../arm-none-eabi/lib/armv7e-m/fpu/fpv5-d16\libc.a(lib_a-mbtowc_r.o)
                              c:/users/yaxing.chen/downloads/env_released_1.2.0/env/tools/gnu_gcc/arm_gcc/mingw/bin/../lib/gcc/arm-none-eabi/5.4.1/../../../../arm-none-eabi/lib/armv7e-m/fpu/fpv5-d16\libc.a(lib_a-locale.o) (__ascii_mbtowc)
c:/users/yaxing.chen/downloads/env_released_1.2.0/env/tools/gnu_gcc/arm_gcc/mingw/bin/../lib/gcc/arm-none-eabi/5.4.1/../../../../arm-none-eabi/lib/armv7e-m/fpu/fpv5-d16\libc.a(lib_a-memchr.o)
                              c:/users/yaxing.chen/downloads/env_released_1.2.0/env/tools/gnu_gcc/arm_gcc/mingw/bin/../lib/gcc/arm-none-eabi/5.4.1/../../../../arm-none-eabi/lib/armv7e-m/fpu/fpv5-d16\libc.a(lib_a-svfprintf.o) (memchr)
c:/users/yaxing.chen/downloads/env_released_1.2.0/env/tools/gnu_gcc/arm_gcc/mingw/bin/../lib/gcc/arm-none-eabi/5.4.1/../../../../arm-none-eabi/lib/armv7e-m/fpu/fpv5-d16\libc.a(lib_a-memmove.o)
                              c:/users/yaxing.chen/downloads/env_released_1.2.0/env/tools/gnu_gcc/arm_gcc/mingw/bin/../lib/gcc/arm-none-eabi/5.4.1/../../../../arm-none-eabi/lib/armv7e-m/fpu/fpv5-d16\libc.a(lib_a-fvwrite.o) (memmove)
c:/users/yaxing.chen/downloads/env_released_1.2.0/env/tools/gnu_gcc/arm_gcc/mingw/bin/../lib/gcc/arm-none-eabi/5.4.1/../../../../arm-none-eabi/lib/armv7e-m/fpu/fpv5-d16\libc.a(lib_a-mprec.o)
                              c:/users/yaxing.chen/downloads/env_released_1.2.0/env/tools/gnu_gcc/arm_gcc/mingw/bin/../lib/gcc/arm-none-eabi/5.4.1/../../../../arm-none-eabi/lib/armv7e-m/fpu/fpv5-d16\libc.a(lib_a-dtoa.o) (_Balloc)
c:/users/yaxing.chen/downloads/env_released_1.2.0/env/tools/gnu_gcc/arm_gcc/mingw/bin/../lib/gcc/arm-none-eabi/5.4.1/../../../../arm-none-eabi/lib/armv7e-m/fpu/fpv5-d16\libc.a(lib_a-strcmp.o)
                              c:/users/yaxing.chen/downloads/env_released_1.2.0/env/tools/gnu_gcc/arm_gcc/mingw/bin/../lib/gcc/arm-none-eabi/5.4.1/../../../../arm-none-eabi/lib/armv7e-m/fpu/fpv5-d16\libc.a(lib_a-locale.o) (strcmp)
c:/users/yaxing.chen/downloads/env_released_1.2.0/env/tools/gnu_gcc/arm_gcc/mingw/bin/../lib/gcc/arm-none-eabi/5.4.1/../../../../arm-none-eabi/lib/armv7e-m/fpu/fpv5-d16\libc.a(lib_a-svfiprintf.o)
                              c:/users/yaxing.chen/downloads/env_released_1.2.0/env/tools/gnu_gcc/arm_gcc/mingw/bin/../lib/gcc/arm-none-eabi/5.4.1/../../../../arm-none-eabi/lib/armv7e-m/fpu/fpv5-d16\libc.a(lib_a-svfprintf.o) (__ssprint_r)
c:/users/yaxing.chen/downloads/env_released_1.2.0/env/tools/gnu_gcc/arm_gcc/mingw/bin/../lib/gcc/arm-none-eabi/5.4.1/../../../../arm-none-eabi/lib/armv7e-m/fpu/fpv5-d16\libc.a(lib_a-wbuf.o)
                              c:/users/yaxing.chen/downloads/env_released_1.2.0/env/tools/gnu_gcc/arm_gcc/mingw/bin/../lib/gcc/arm-none-eabi/5.4.1/../../../../arm-none-eabi/lib/armv7e-m/fpu/fpv5-d16\libc.a(lib_a-fputwc.o) (__swbuf_r)
c:/users/yaxing.chen/downloads/env_released_1.2.0/env/tools/gnu_gcc/arm_gcc/mingw/bin/../lib/gcc/arm-none-eabi/5.4.1/../../../../arm-none-eabi/lib/armv7e-m/fpu/fpv5-d16\libc.a(lib_a-wcrtomb.o)
                              c:/users/yaxing.chen/downloads/env_released_1.2.0/env/tools/gnu_gcc/arm_gcc/mingw/bin/../lib/gcc/arm-none-eabi/5.4.1/../../../../arm-none-eabi/lib/armv7e-m/fpu/fpv5-d16\libc.a(lib_a-fputwc.o) (_wcrtomb_r)
c:/users/yaxing.chen/downloads/env_released_1.2.0/env/tools/gnu_gcc/arm_gcc/mingw/bin/../lib/gcc/arm-none-eabi/5.4.1/../../../../arm-none-eabi/lib/armv7e-m/fpu/fpv5-d16\libc.a(lib_a-wctomb_r.o)
                              c:/users/yaxing.chen/downloads/env_released_1.2.0/env/tools/gnu_gcc/arm_gcc/mingw/bin/../lib/gcc/arm-none-eabi/5.4.1/../../../../arm-none-eabi/lib/armv7e-m/fpu/fpv5-d16\libc.a(lib_a-locale.o) (__ascii_wctomb)
c:/users/yaxing.chen/downloads/env_released_1.2.0/env/tools/gnu_gcc/arm_gcc/mingw/bin/../lib/gcc/arm-none-eabi/5.4.1/../../../../arm-none-eabi/lib/armv7e-m/fpu/fpv5-d16\libc.a(lib_a-ctype_.o)
                              c:/users/yaxing.chen/downloads/env_released_1.2.0/env/tools/gnu_gcc/arm_gcc/mingw/bin/../lib/gcc/arm-none-eabi/5.4.1/../../../../arm-none-eabi/lib/armv7e-m/fpu/fpv5-d16\libc.a(lib_a-locale.o) (_ctype_)
c:/users/yaxing.chen/downloads/env_released_1.2.0/env/tools/gnu_gcc/arm_gcc/mingw/bin/../lib/gcc/arm-none-eabi/5.4.1/armv7e-m/fpu/fpv5-d16\libgcc.a(_aeabi_uldivmod.o)
                              libraries\MIMXRT1064\MIMXRT1064\system_MIMXRT1064.o (__aeabi_uldivmod)
c:/users/yaxing.chen/downloads/env_released_1.2.0/env/tools/gnu_gcc/arm_gcc/mingw/bin/../lib/gcc/arm-none-eabi/5.4.1/armv7e-m/fpu/fpv5-d16\libgcc.a(_udivmoddi4.o)
                              c:/users/yaxing.chen/downloads/env_released_1.2.0/env/tools/gnu_gcc/arm_gcc/mingw/bin/../lib/gcc/arm-none-eabi/5.4.1/armv7e-m/fpu/fpv5-d16\libgcc.a(_aeabi_uldivmod.o) (__udivmoddi4)
c:/users/yaxing.chen/downloads/env_released_1.2.0/env/tools/gnu_gcc/arm_gcc/mingw/bin/../lib/gcc/arm-none-eabi/5.4.1/armv7e-m/fpu/fpv5-d16\libgcc.a(_dvmd_tls.o)
                              c:/users/yaxing.chen/downloads/env_released_1.2.0/env/tools/gnu_gcc/arm_gcc/mingw/bin/../lib/gcc/arm-none-eabi/5.4.1/armv7e-m/fpu/fpv5-d16\libgcc.a(_aeabi_uldivmod.o) (__aeabi_ldiv0)

Allocating common symbols
Common symbol       size              file

rt_interrupt_to_thread
                    0x4               build\kernel\libcpu\arm\cortex-m7\cpuport.o
rt_interrupt_from_thread
                    0x4               build\kernel\libcpu\arm\cortex-m7\cpuport.o
shell               0x4               build\kernel\components\finsh\shell.o
g_xtalFreq          0x4               libraries\MIMXRT1064\MIMXRT1064\drivers\fsl_clock.o
rt_thread_switch_interrupt_flag
                    0x4               build\kernel\libcpu\arm\cortex-m7\cpuport.o
rt_thread_priority_table
                    0x100             build\kernel\src\scheduler.o
rt_object_put_hook  0x4               build\kernel\src\object.o
rt_current_priority
                    0x1               build\kernel\src\scheduler.o
rt_assert_hook      0x4               build\kernel\src\kservice.o
rt_object_take_hook
                    0x4               build\kernel\src\object.o
rt_current_thread   0x4               build\kernel\src\scheduler.o
rt_thread_ready_priority_group
                    0x4               build\kernel\src\scheduler.o
rt_thread_defunct   0x8               build\kernel\src\scheduler.o
g_rtcXtalFreq       0x4               libraries\MIMXRT1064\MIMXRT1064\drivers\fsl_clock.o
rt_object_trytake_hook
                    0x4               build\kernel\src\object.o

Discarded input sections

 .text          0x00000000        0x0 build\applications\main.o
 .data          0x00000000        0x0 build\applications\main.o
 .bss           0x00000000        0x0 build\applications\main.o
 .text          0x00000000        0x0 build\board\board.o
 .data          0x00000000        0x0 build\board\board.o
 .bss           0x00000000        0x0 build\board\board.o
 .text          0x00000000        0x0 build\board\MCUX_Config\clock_config.o
 .data          0x00000000        0x0 build\board\MCUX_Config\clock_config.o
 .bss           0x00000000        0x0 build\board\MCUX_Config\clock_config.o
 .text.BOARD_InitBootClocks
                0x00000000        0x4 build\board\MCUX_Config\clock_config.o
 .rodata.usb1PllConfig_BOARD_BootClockRUN
                0x00000000        0x2 build\board\MCUX_Config\clock_config.o
 .rodata.sysPllConfig_BOARD_BootClockRUN
                0x00000000       0x10 build\board\MCUX_Config\clock_config.o
 .text          0x00000000        0x0 build\board\MCUX_Config\pin_mux.o
 .data          0x00000000        0x0 build\board\MCUX_Config\pin_mux.o
 .bss           0x00000000        0x0 build\board\MCUX_Config\pin_mux.o
 .text.BOARD_InitBootPins
                0x00000000        0x2 build\board\MCUX_Config\pin_mux.o
 .text          0x00000000        0x0 build\xip\evkmimxrt1064_flexspi_nor_config.o
 .data          0x00000000        0x0 build\xip\evkmimxrt1064_flexspi_nor_config.o
 .bss           0x00000000        0x0 build\xip\evkmimxrt1064_flexspi_nor_config.o
 .text          0x00000000        0x0 build\xip\evkmimxrt1064_sdram_ini_dcd.o
 .data          0x00000000        0x0 build\xip\evkmimxrt1064_sdram_ini_dcd.o
 .bss           0x00000000        0x0 build\xip\evkmimxrt1064_sdram_ini_dcd.o
 .text          0x00000000        0x0 build\xip\fsl_flexspi_nor_boot.o
 .data          0x00000000        0x0 build\xip\fsl_flexspi_nor_boot.o
 .bss           0x00000000        0x0 build\xip\fsl_flexspi_nor_boot.o
 .text          0x00000000        0x0 build\kernel\src\clock.o
 .data          0x00000000        0x0 build\kernel\src\clock.o
 .bss           0x00000000        0x0 build\kernel\src\clock.o
 .text.rt_system_tick_init
                0x00000000        0x2 build\kernel\src\clock.o
 .text.rt_tick_set
                0x00000000       0x18 build\kernel\src\clock.o
 .text          0x00000000        0x0 build\kernel\src\components.o
 .data          0x00000000        0x0 build\kernel\src\components.o
 .bss           0x00000000        0x0 build\kernel\src\components.o
 .text          0x00000000        0x0 build\kernel\src\device.o
 .data          0x00000000        0x0 build\kernel\src\device.o
 .bss           0x00000000        0x0 build\kernel\src\device.o
 .text.rt_device_unregister
                0x00000000       0x50 build\kernel\src\device.o
 .text.rt_device_init_all
                0x00000000        0x4 build\kernel\src\device.o
 .text.rt_device_create
                0x00000000       0x22 build\kernel\src\device.o
 .text.rt_device_destroy
                0x00000000       0x58 build\kernel\src\device.o
 .text.rt_device_init
                0x00000000       0x4c build\kernel\src\device.o
 .text.rt_device_control
                0x00000000       0x50 build\kernel\src\device.o
 .text.rt_device_set_tx_complete
                0x00000000       0x3c build\kernel\src\device.o
 .rodata.__FUNCTION__.5691
                0x00000000       0x12 build\kernel\src\device.o
 .rodata.__FUNCTION__.5632
                0x00000000       0x15 build\kernel\src\device.o
 .rodata.__FUNCTION__.5655
                0x00000000       0x12 build\kernel\src\device.o
 .rodata.__FUNCTION__.5660
                0x00000000        0xf build\kernel\src\device.o
 .rodata.__FUNCTION__.5705
                0x00000000       0x1a build\kernel\src\device.o
 .text          0x00000000        0x0 build\kernel\src\idle.o
 .data          0x00000000        0x0 build\kernel\src\idle.o
 .bss           0x00000000        0x0 build\kernel\src\idle.o
 .text.rt_thread_idle_sethook
                0x00000000       0x30 build\kernel\src\idle.o
 .text.rt_thread_idle_delhook
                0x00000000       0x34 build\kernel\src\idle.o
 .text.rt_thread_idle_gethandler
                0x00000000        0x8 build\kernel\src\idle.o
 .text          0x00000000        0x0 build\kernel\src\ipc.o
 .data          0x00000000        0x0 build\kernel\src\ipc.o
 .bss           0x00000000        0x0 build\kernel\src\ipc.o
 .text.rt_ipc_list_resume_all
                0x00000000       0x2a build\kernel\src\ipc.o
 .text.rt_sem_detach
                0x00000000       0x58 build\kernel\src\ipc.o
 .text.rt_sem_create
                0x00000000       0x68 build\kernel\src\ipc.o
 .text.rt_sem_delete
                0x00000000       0x8c build\kernel\src\ipc.o
 .text.rt_sem_trytake
                0x00000000        0x6 build\kernel\src\ipc.o
 .text.rt_sem_control
                0x00000000       0x60 build\kernel\src\ipc.o
 .text.rt_mutex_init
                0x00000000       0x44 build\kernel\src\ipc.o
 .text.rt_mutex_detach
                0x00000000       0x60 build\kernel\src\ipc.o
 .text.rt_mutex_create
                0x00000000       0x5c build\kernel\src\ipc.o
 .text.rt_mutex_delete
                0x00000000       0x8c build\kernel\src\ipc.o
 .text.rt_mutex_take
                0x00000000      0x14c build\kernel\src\ipc.o
 .text.rt_mutex_release
                0x00000000      0x124 build\kernel\src\ipc.o
 .text.rt_mutex_control
                0x00000000       0x3c build\kernel\src\ipc.o
 .text.rt_event_init
                0x00000000       0x38 build\kernel\src\ipc.o
 .text.rt_event_detach
                0x00000000       0x60 build\kernel\src\ipc.o
 .text.rt_event_create
                0x00000000       0x54 build\kernel\src\ipc.o
 .text.rt_event_delete
                0x00000000       0x8c build\kernel\src\ipc.o
 .text.rt_event_send
                0x00000000       0xe0 build\kernel\src\ipc.o
 .text.rt_event_recv
                0x00000000      0x188 build\kernel\src\ipc.o
 .text.rt_event_control
                0x00000000       0x60 build\kernel\src\ipc.o
 .text.rt_mb_init
                0x00000000       0x50 build\kernel\src\ipc.o
 .text.rt_mb_detach
                0x00000000       0x68 build\kernel\src\ipc.o
 .text.rt_mb_create
                0x00000000       0x80 build\kernel\src\ipc.o
 .text.rt_mb_delete
                0x00000000       0x9c build\kernel\src\ipc.o
 .text.rt_mb_send_wait
                0x00000000      0x178 build\kernel\src\ipc.o
 .text.rt_mb_send
                0x00000000        0x6 build\kernel\src\ipc.o
 .text.rt_mb_recv
                0x00000000      0x19c build\kernel\src\ipc.o
 .text.rt_mb_control
                0x00000000       0x6c build\kernel\src\ipc.o
 .text.rt_mq_init
                0x00000000       0x78 build\kernel\src\ipc.o
 .text.rt_mq_detach
                0x00000000       0x68 build\kernel\src\ipc.o
 .text.rt_mq_create
                0x00000000       0xb0 build\kernel\src\ipc.o
 .text.rt_mq_delete
                0x00000000       0x9c build\kernel\src\ipc.o
 .text.rt_mq_send_wait
                0x00000000      0x1c4 build\kernel\src\ipc.o
 .text.rt_mq_send
                0x00000000        0x6 build\kernel\src\ipc.o
 .text.rt_mq_urgent
                0x00000000       0xe8 build\kernel\src\ipc.o
 .text.rt_mq_recv
                0x00000000      0x1e0 build\kernel\src\ipc.o
 .text.rt_mq_control
                0x00000000       0x80 build\kernel\src\ipc.o
 .rodata.__FUNCTION__.5834
                0x00000000        0xe build\kernel\src\ipc.o
 .rodata.__FUNCTION__.5788
                0x00000000        0xe build\kernel\src\ipc.o
 .rodata.__FUNCTION__.5838
                0x00000000       0x10 build\kernel\src\ipc.o
 .rodata.__FUNCTION__.5799
                0x00000000       0x10 build\kernel\src\ipc.o
 .rodata.__FUNCTION__.5845
                0x00000000       0x10 build\kernel\src\ipc.o
 .rodata.__FUNCTION__.6015
                0x00000000        0xd build\kernel\src\ipc.o
 .rodata.__FUNCTION__.5978
                0x00000000        0xd build\kernel\src\ipc.o
 .rodata.__FUNCTION__.5849
                0x00000000       0x10 build\kernel\src\ipc.o
 .rodata.__FUNCTION__.5792
                0x00000000       0x10 build\kernel\src\ipc.o
 .rodata.__FUNCTION__.5860
                0x00000000        0xe build\kernel\src\ipc.o
 .rodata.__FUNCTION__.5903
                0x00000000        0xd build\kernel\src\ipc.o
 .rodata.__FUNCTION__.5986
                0x00000000        0xd build\kernel\src\ipc.o
 .rodata.__FUNCTION__.5908
                0x00000000        0xd build\kernel\src\ipc.o
 .rodata.__FUNCTION__.6039
                0x00000000        0xe build\kernel\src\ipc.o
 .rodata.__FUNCTION__.5875
                0x00000000        0xe build\kernel\src\ipc.o
 .rodata.__FUNCTION__.5883
                0x00000000       0x11 build\kernel\src\ipc.o
 .rodata.__FUNCTION__.5743
                0x00000000        0xe build\kernel\src\ipc.o
 .rodata.__FUNCTION__.5891
                0x00000000        0xb build\kernel\src\ipc.o
 .rodata.__FUNCTION__.5751
                0x00000000        0xe build\kernel\src\ipc.o
 .rodata.__FUNCTION__.5997
                0x00000000       0x10 build\kernel\src\ipc.o
 .rodata.__FUNCTION__.5895
                0x00000000        0xd build\kernel\src\ipc.o
 .rodata.__FUNCTION__.5935
                0x00000000        0xb build\kernel\src\ipc.o
 .rodata.__FUNCTION__.5756
                0x00000000        0xe build\kernel\src\ipc.o
 .rodata.__FUNCTION__.5804
                0x00000000       0x10 build\kernel\src\ipc.o
 .rodata.__FUNCTION__.5917
                0x00000000       0x10 build\kernel\src\ipc.o
 .rodata.__FUNCTION__.5947
                0x00000000        0xe build\kernel\src\ipc.o
 .rodata.__FUNCTION__.6026
                0x00000000        0xb build\kernel\src\ipc.o
 .rodata.__FUNCTION__.5812
                0x00000000        0xe build\kernel\src\ipc.o
 .rodata.__FUNCTION__.5960
                0x00000000        0xb build\kernel\src\ipc.o
 .rodata.__FUNCTION__.5820
                0x00000000       0x11 build\kernel\src\ipc.o
 .rodata.__FUNCTION__.5781
                0x00000000        0xf build\kernel\src\ipc.o
 .rodata.__FUNCTION__.5967
                0x00000000        0xd build\kernel\src\ipc.o
 .rodata.__FUNCTION__.5828
                0x00000000       0x11 build\kernel\src\ipc.o
 .text          0x00000000        0x0 build\kernel\src\irq.o
 .data          0x00000000        0x0 build\kernel\src\irq.o
 .bss           0x00000000        0x0 build\kernel\src\irq.o
 .text.rt_interrupt_enter_sethook
                0x00000000        0xc build\kernel\src\irq.o
 .text.rt_interrupt_leave_sethook
                0x00000000        0xc build\kernel\src\irq.o
 .text          0x00000000        0x0 build\kernel\src\kservice.o
 .data          0x00000000        0x0 build\kernel\src\kservice.o
 .bss           0x00000000        0x0 build\kernel\src\kservice.o
 .text.rt_get_errno
                0x00000000       0x1c build\kernel\src\kservice.o
 .text._rt_errno
                0x00000000       0x1c build\kernel\src\kservice.o
 .text.rt_memcmp
                0x00000000       0x1c build\kernel\src\kservice.o
 .text.rt_strcasecmp
                0x00000000       0x30 build\kernel\src\kservice.o
 .text.rt_strcmp
                0x00000000       0x1a build\kernel\src\kservice.o
 .text.rt_strnlen
                0x00000000       0x16 build\kernel\src\kservice.o
 .text.rt_strstr
                0x00000000       0x48 build\kernel\src\kservice.o
 .text.rt_strdup
                0x00000000       0x20 build\kernel\src\kservice.o
 .text.rt_snprintf
                0x00000000       0x1a build\kernel\src\kservice.o
 .text.rt_kputs
                0x00000000       0x34 build\kernel\src\kservice.o
 .text.rt_malloc_align
                0x00000000       0x2c build\kernel\src\kservice.o
 .text.rt_free_align
                0x00000000        0x8 build\kernel\src\kservice.o
 .text.rt_assert_set_hook
                0x00000000        0xc build\kernel\src\kservice.o
 .text          0x00000000        0x0 build\kernel\src\memheap.o
 .data          0x00000000        0x0 build\kernel\src\memheap.o
 .bss           0x00000000        0x0 build\kernel\src\memheap.o
 .text.rt_memheap_detach
                0x00000000       0x58 build\kernel\src\memheap.o
 .rodata.__FUNCTION__.5709
                0x00000000       0x12 build\kernel\src\memheap.o
 .text          0x00000000        0x0 build\kernel\src\mempool.o
 .data          0x00000000        0x0 build\kernel\src\mempool.o
 .bss           0x00000000        0x0 build\kernel\src\mempool.o
 .text.rt_mp_alloc_sethook
                0x00000000        0xc build\kernel\src\mempool.o
 .text.rt_mp_free_sethook
                0x00000000        0xc build\kernel\src\mempool.o
 .text.rt_mp_init
                0x00000000       0xa4 build\kernel\src\mempool.o
 .text.rt_mp_detach
                0x00000000       0x78 build\kernel\src\mempool.o
 .text.rt_mp_create
                0x00000000       0xc4 build\kernel\src\mempool.o
 .text.rt_mp_delete
                0x00000000       0xb0 build\kernel\src\mempool.o
 .text.rt_mp_alloc
                0x00000000      0x128 build\kernel\src\mempool.o
 .text.rt_mp_free
                0x00000000       0x5c build\kernel\src\mempool.o
 .rodata.__FUNCTION__.5745
                0x00000000        0xd build\kernel\src\mempool.o
 .bss.rt_mp_alloc_hook
                0x00000000        0x4 build\kernel\src\mempool.o
 .rodata.__FUNCTION__.5755
                0x00000000        0xd build\kernel\src\mempool.o
 .rodata.str1.1
                0x00000000      0x13f build\kernel\src\mempool.o
 .rodata.__FUNCTION__.5767
                0x00000000        0xc build\kernel\src\mempool.o
 .rodata.__FUNCTION__.5723
                0x00000000        0xb build\kernel\src\mempool.o
 .bss.rt_mp_free_hook
                0x00000000        0x4 build\kernel\src\mempool.o
 .rodata.__FUNCTION__.5732
                0x00000000        0xd build\kernel\src\mempool.o
 .comment       0x00000000       0x6f build\kernel\src\mempool.o
 .ARM.attributes
                0x00000000       0x37 build\kernel\src\mempool.o
 .text          0x00000000        0x0 build\kernel\src\object.o
 .data          0x00000000        0x0 build\kernel\src\object.o
 .bss           0x00000000        0x0 build\kernel\src\object.o
 .text.rt_object_attach_sethook
                0x00000000        0xc build\kernel\src\object.o
 .text.rt_object_detach_sethook
                0x00000000        0xc build\kernel\src\object.o
 .text.rt_object_trytake_sethook
                0x00000000        0xc build\kernel\src\object.o
 .text.rt_object_take_sethook
                0x00000000        0xc build\kernel\src\object.o
 .text.rt_object_put_sethook
                0x00000000        0xc build\kernel\src\object.o
 .text.rt_system_object_init
                0x00000000        0x2 build\kernel\src\object.o
 .text.rt_object_get_length
                0x00000000       0x28 build\kernel\src\object.o
 .text.rt_object_get_pointers
                0x00000000       0x40 build\kernel\src\object.o
 .text.rt_object_find
                0x00000000       0x78 build\kernel\src\object.o
 .rodata.__FUNCTION__.5822
                0x00000000        0xf build\kernel\src\object.o
 .text          0x00000000        0x0 build\kernel\src\scheduler.o
 .data          0x00000000        0x0 build\kernel\src\scheduler.o
 .bss           0x00000000        0x0 build\kernel\src\scheduler.o
 .text.rt_scheduler_sethook
                0x00000000        0xc build\kernel\src\scheduler.o
 .text.rt_critical_level
                0x00000000        0xc build\kernel\src\scheduler.o
 .text          0x00000000        0x0 build\kernel\src\signal.o
 .data          0x00000000        0x0 build\kernel\src\signal.o
 .bss           0x00000000        0x0 build\kernel\src\signal.o
 .comment       0x00000000       0x6f build\kernel\src\signal.o
 .ARM.attributes
                0x00000000       0x37 build\kernel\src\signal.o
 .text          0x00000000        0x0 build\kernel\src\thread.o
 .data          0x00000000        0x0 build\kernel\src\thread.o
 .bss           0x00000000        0x0 build\kernel\src\thread.o
 .text.rt_thread_suspend_sethook
                0x00000000        0xc build\kernel\src\thread.o
 .text.rt_thread_resume_sethook
                0x00000000        0xc build\kernel\src\thread.o
 .text.rt_thread_inited_sethook
                0x00000000        0xc build\kernel\src\thread.o
 .text.rt_thread_detach
                0x00000000       0xa4 build\kernel\src\thread.o
 .text.rt_thread_delete
                0x00000000       0x90 build\kernel\src\thread.o
 .text.rt_thread_delay
                0x00000000        0x4 build\kernel\src\thread.o
 .text.rt_thread_delay_until
                0x00000000       0xb0 build\kernel\src\thread.o
 .text.rt_thread_control
                0x00000000       0xac build\kernel\src\thread.o
 .text.rt_thread_find
                0x00000000       0x6c build\kernel\src\thread.o
 .rodata.__FUNCTION__.5794
                0x00000000       0x16 build\kernel\src\thread.o
 .rodata.__FUNCTION__.5805
                0x00000000       0x12 build\kernel\src\thread.o
 .rodata.__FUNCTION__.5759
                0x00000000       0x11 build\kernel\src\thread.o
 .rodata.__FUNCTION__.5833
                0x00000000        0xf build\kernel\src\thread.o
 .rodata.__FUNCTION__.5775
                0x00000000       0x11 build\kernel\src\thread.o
 .text          0x00000000        0x0 build\kernel\src\timer.o
 .data          0x00000000        0x0 build\kernel\src\timer.o
 .bss           0x00000000        0x0 build\kernel\src\timer.o
 .text.rt_timer_enter_sethook
                0x00000000        0xc build\kernel\src\timer.o
 .text.rt_timer_exit_sethook
                0x00000000        0xc build\kernel\src\timer.o
 .text.rt_timer_create
                0x00000000       0x30 build\kernel\src\timer.o
 .text.rt_timer_delete
                0x00000000       0x68 build\kernel\src\timer.o
 .text.rt_timer_next_timeout_tick
                0x00000000       0x20 build\kernel\src\timer.o
 .rodata.__FUNCTION__.5768
                0x00000000       0x10 build\kernel\src\timer.o
 .text          0x00000000        0x0 build\kernel\libcpu\arm\common\backtrace.o
 .data          0x00000000        0x0 build\kernel\libcpu\arm\common\backtrace.o
 .bss           0x00000000        0x0 build\kernel\libcpu\arm\common\backtrace.o
 .text.rt_hw_backtrace
                0x00000000       0x44 build\kernel\libcpu\arm\common\backtrace.o
 .rodata.str1.1
                0x00000000       0x19 build\kernel\libcpu\arm\common\backtrace.o
 .comment       0x00000000       0x6f build\kernel\libcpu\arm\common\backtrace.o
 .ARM.attributes
                0x00000000       0x37 build\kernel\libcpu\arm\common\backtrace.o
 .text          0x00000000        0x0 build\kernel\libcpu\arm\common\div0.o
 .data          0x00000000        0x0 build\kernel\libcpu\arm\common\div0.o
 .bss           0x00000000        0x0 build\kernel\libcpu\arm\common\div0.o
 .text.__div0   0x00000000        0x2 build\kernel\libcpu\arm\common\div0.o
 .comment       0x00000000       0x6f build\kernel\libcpu\arm\common\div0.o
 .ARM.attributes
                0x00000000       0x37 build\kernel\libcpu\arm\common\div0.o
 .text          0x00000000        0x0 build\kernel\libcpu\arm\common\showmem.o
 .data          0x00000000        0x0 build\kernel\libcpu\arm\common\showmem.o
 .bss           0x00000000        0x0 build\kernel\libcpu\arm\common\showmem.o
 .text.rt_hw_show_memory
                0x00000000       0x5c build\kernel\libcpu\arm\common\showmem.o
 .rodata.__FUNCTION__.5630
                0x00000000       0x12 build\kernel\libcpu\arm\common\showmem.o
 .rodata.str1.1
                0x00000000       0x19 build\kernel\libcpu\arm\common\showmem.o
 .comment       0x00000000       0x6f build\kernel\libcpu\arm\common\showmem.o
 .ARM.attributes
                0x00000000       0x37 build\kernel\libcpu\arm\common\showmem.o
 .text          0x00000000        0x0 build\kernel\libcpu\arm\cortex-m7\cpu_cache.o
 .data          0x00000000        0x0 build\kernel\libcpu\arm\cortex-m7\cpu_cache.o
 .bss           0x00000000        0x0 build\kernel\libcpu\arm\cortex-m7\cpu_cache.o
 .text.rt_hw_cpu_icache_enable
                0x00000000       0x30 build\kernel\libcpu\arm\cortex-m7\cpu_cache.o
 .text.rt_hw_cpu_icache_disable
                0x00000000       0x28 build\kernel\libcpu\arm\cortex-m7\cpu_cache.o
 .text.rt_hw_cpu_icache_status
                0x00000000        0x4 build\kernel\libcpu\arm\cortex-m7\cpu_cache.o
 .text.rt_hw_cpu_icache_ops
                0x00000000       0x34 build\kernel\libcpu\arm\cortex-m7\cpu_cache.o
 .text.rt_hw_cpu_dcache_enable
                0x00000000       0x54 build\kernel\libcpu\arm\cortex-m7\cpu_cache.o
 .text.rt_hw_cpu_dcache_disable
                0x00000000       0x54 build\kernel\libcpu\arm\cortex-m7\cpu_cache.o
 .text.rt_hw_cpu_dcache_status
                0x00000000        0x4 build\kernel\libcpu\arm\cortex-m7\cpu_cache.o
 .text.rt_hw_cpu_dcache_ops
                0x00000000       0x78 build\kernel\libcpu\arm\cortex-m7\cpu_cache.o
 .rodata.str1.1
                0x00000000        0x2 build\kernel\libcpu\arm\cortex-m7\cpu_cache.o
 .rodata.__FUNCTION__.10752
                0x00000000       0x15 build\kernel\libcpu\arm\cortex-m7\cpu_cache.o
 .comment       0x00000000       0x6f build\kernel\libcpu\arm\cortex-m7\cpu_cache.o
 .ARM.attributes
                0x00000000       0x37 build\kernel\libcpu\arm\cortex-m7\cpu_cache.o
 .text          0x00000000        0x0 build\kernel\libcpu\arm\cortex-m7\cpuport.o
 .data          0x00000000        0x0 build\kernel\libcpu\arm\cortex-m7\cpuport.o
 .bss           0x00000000        0x0 build\kernel\libcpu\arm\cortex-m7\cpuport.o
 .text.rt_hw_exception_install
                0x00000000        0xc build\kernel\libcpu\arm\cortex-m7\cpuport.o
 .text.rt_hw_cpu_shutdown
                0x00000000       0x24 build\kernel\libcpu\arm\cortex-m7\cpuport.o
 .text.rt_hw_cpu_reset
                0x00000000       0x10 build\kernel\libcpu\arm\cortex-m7\cpuport.o
 .rodata.__FUNCTION__.5747
                0x00000000       0x13 build\kernel\libcpu\arm\cortex-m7\cpuport.o
 .data          0x00000000        0x0 build\kernel\libcpu\arm\cortex-m7\context_gcc.o
 .bss           0x00000000        0x0 build\kernel\libcpu\arm\cortex-m7\context_gcc.o
 .text          0x00000000        0x0 build\kernel\components\drivers\cputime\cputime.o
 .data          0x00000000        0x0 build\kernel\components\drivers\cputime\cputime.o
 .bss           0x00000000        0x0 build\kernel\components\drivers\cputime\cputime.o
 .text.clock_cpu_getres
                0x00000000       0x28 build\kernel\components\drivers\cputime\cputime.o
 .text.clock_cpu_gettime
                0x00000000       0x20 build\kernel\components\drivers\cputime\cputime.o
 .text.clock_cpu_microsecond
                0x00000000       0x30 build\kernel\components\drivers\cputime\cputime.o
 .text.clock_cpu_millisecond
                0x00000000       0x30 build\kernel\components\drivers\cputime\cputime.o
 .text.clock_cpu_setops
                0x00000000       0x3c build\kernel\components\drivers\cputime\cputime.o
 .bss._cputime_ops
                0x00000000        0x4 build\kernel\components\drivers\cputime\cputime.o
 .rodata.str1.1
                0x00000000       0x3f build\kernel\components\drivers\cputime\cputime.o
 .rodata.__FUNCTION__.6053
                0x00000000       0x11 build\kernel\components\drivers\cputime\cputime.o
 .comment       0x00000000       0x6f build\kernel\components\drivers\cputime\cputime.o
 .ARM.attributes
                0x00000000       0x37 build\kernel\components\drivers\cputime\cputime.o
 .text          0x00000000        0x0 build\kernel\components\drivers\misc\pin.o
 .data          0x00000000        0x0 build\kernel\components\drivers\misc\pin.o
 .bss           0x00000000        0x0 build\kernel\components\drivers\misc\pin.o
 .text.rt_pin_attach_irq
                0x00000000       0x48 build\kernel\components\drivers\misc\pin.o
 .text.rt_pin_detach_irq
                0x00000000       0x38 build\kernel\components\drivers\misc\pin.o
 .text.rt_pin_irq_enable
                0x00000000       0x3c build\kernel\components\drivers\misc\pin.o
 .rodata.__FUNCTION__.7567
                0x00000000       0x12 build\kernel\components\drivers\misc\pin.o
 .rodata.__FUNCTION__.7562
                0x00000000       0x12 build\kernel\components\drivers\misc\pin.o
 .rodata.__FUNCTION__.7558
                0x00000000       0x12 build\kernel\components\drivers\misc\pin.o
 .text          0x00000000        0x0 build\kernel\components\drivers\serial\serial.o
 .data          0x00000000        0x0 build\kernel\components\drivers\serial\serial.o
 .bss           0x00000000        0x0 build\kernel\components\drivers\serial\serial.o
 .text          0x00000000        0x0 build\kernel\components\drivers\src\completion.o
 .data          0x00000000        0x0 build\kernel\components\drivers\src\completion.o
 .bss           0x00000000        0x0 build\kernel\components\drivers\src\completion.o
 .text          0x00000000        0x0 build\kernel\components\drivers\src\dataqueue.o
 .data          0x00000000        0x0 build\kernel\components\drivers\src\dataqueue.o
 .bss           0x00000000        0x0 build\kernel\components\drivers\src\dataqueue.o
 .text.rt_data_queue_init
                0x00000000       0x74 build\kernel\components\drivers\src\dataqueue.o
 .text.rt_data_queue_push
                0x00000000      0x124 build\kernel\components\drivers\src\dataqueue.o
 .text.rt_data_queue_pop
                0x00000000      0x170 build\kernel\components\drivers\src\dataqueue.o
 .text.rt_data_queue_peak
                0x00000000       0x64 build\kernel\components\drivers\src\dataqueue.o
 .text.rt_data_queue_reset
                0x00000000       0x80 build\kernel\components\drivers\src\dataqueue.o
 .text.rt_data_queue_deinit
                0x00000000       0x44 build\kernel\components\drivers\src\dataqueue.o
 .rodata.__FUNCTION__.6119
                0x00000000       0x13 build\kernel\components\drivers\src\dataqueue.o
 .rodata.__FUNCTION__.6129
                0x00000000       0x13 build\kernel\components\drivers\src\dataqueue.o
 .rodata.__FUNCTION__.6144
                0x00000000       0x12 build\kernel\components\drivers\src\dataqueue.o
 .rodata.str1.1
                0x00000000       0x94 build\kernel\components\drivers\src\dataqueue.o
 .rodata.__FUNCTION__.6156
                0x00000000       0x13 build\kernel\components\drivers\src\dataqueue.o
 .rodata.__FUNCTION__.6162
                0x00000000       0x14 build\kernel\components\drivers\src\dataqueue.o
 .rodata.__FUNCTION__.6173
                0x00000000       0x15 build\kernel\components\drivers\src\dataqueue.o
 .comment       0x00000000       0x6f build\kernel\components\drivers\src\dataqueue.o
 .ARM.attributes
                0x00000000       0x37 build\kernel\components\drivers\src\dataqueue.o
 .text          0x00000000        0x0 build\kernel\components\drivers\src\pipe.o
 .data          0x00000000        0x0 build\kernel\components\drivers\src\pipe.o
 .bss           0x00000000        0x0 build\kernel\components\drivers\src\pipe.o
 .text.rt_pipe_control
                0x00000000        0x4 build\kernel\components\drivers\src\pipe.o
 .text.rt_pipe_open
                0x00000000       0x3e build\kernel\components\drivers\src\pipe.o
 .text.rt_pipe_close
                0x00000000       0x34 build\kernel\components\drivers\src\pipe.o
 .text.rt_pipe_read
                0x00000000       0x58 build\kernel\components\drivers\src\pipe.o
 .text.rt_pipe_write
                0x00000000       0x58 build\kernel\components\drivers\src\pipe.o
 .text.rt_pipe_create
                0x00000000       0xb0 build\kernel\components\drivers\src\pipe.o
 .text.rt_pipe_delete
                0x00000000       0x40 build\kernel\components\drivers\src\pipe.o
 .rodata.str1.1
                0x00000000        0xf build\kernel\components\drivers\src\pipe.o
 .rodata.__FUNCTION__.6157
                0x00000000        0xf build\kernel\components\drivers\src\pipe.o
 .comment       0x00000000       0x6f build\kernel\components\drivers\src\pipe.o
 .ARM.attributes
                0x00000000       0x37 build\kernel\components\drivers\src\pipe.o
 .text          0x00000000        0x0 build\kernel\components\drivers\src\ringblk_buf.o
 .data          0x00000000        0x0 build\kernel\components\drivers\src\ringblk_buf.o
 .bss           0x00000000        0x0 build\kernel\components\drivers\src\ringblk_buf.o
 .text.rt_rbb_init
                0x00000000       0x64 build\kernel\components\drivers\src\ringblk_buf.o
 .text.rt_rbb_create
                0x00000000       0x5c build\kernel\components\drivers\src\ringblk_buf.o
 .text.rt_rbb_destroy
                0x00000000       0x30 build\kernel\components\drivers\src\ringblk_buf.o
 .text.rt_rbb_blk_alloc
                0x00000000      0x168 build\kernel\components\drivers\src\ringblk_buf.o
 .text.rt_rbb_blk_put
                0x00000000       0x34 build\kernel\components\drivers\src\ringblk_buf.o
 .text.rt_rbb_blk_get
                0x00000000       0x48 build\kernel\components\drivers\src\ringblk_buf.o
 .text.rt_rbb_blk_size
                0x00000000       0x20 build\kernel\components\drivers\src\ringblk_buf.o
 .text.rt_rbb_blk_buf
                0x00000000       0x20 build\kernel\components\drivers\src\ringblk_buf.o
 .text.rt_rbb_blk_free
                0x00000000       0x6c build\kernel\components\drivers\src\ringblk_buf.o
 .text.rt_rbb_blk_queue_get
                0x00000000       0xc0 build\kernel\components\drivers\src\ringblk_buf.o
 .text.rt_rbb_blk_queue_len
                0x00000000       0x38 build\kernel\components\drivers\src\ringblk_buf.o
 .text.rt_rbb_blk_queue_buf
                0x00000000       0x20 build\kernel\components\drivers\src\ringblk_buf.o
 .text.rt_rbb_blk_queue_free
                0x00000000       0x4c build\kernel\components\drivers\src\ringblk_buf.o
 .text.rt_rbb_next_blk_queue_len
                0x00000000       0x64 build\kernel\components\drivers\src\ringblk_buf.o
 .text.rt_rbb_get_buf_size
                0x00000000       0x20 build\kernel\components\drivers\src\ringblk_buf.o
 .rodata.__FUNCTION__.6179
                0x00000000       0x10 build\kernel\components\drivers\src\ringblk_buf.o
 .rodata.__FUNCTION__.6190
                0x00000000       0x15 build\kernel\components\drivers\src\ringblk_buf.o
 .rodata.__FUNCTION__.6131
                0x00000000        0xf build\kernel\components\drivers\src\ringblk_buf.o
 .rodata.__FUNCTION__.6136
                0x00000000       0x16 build\kernel\components\drivers\src\ringblk_buf.o
 .rodata.__FUNCTION__.6213
                0x00000000       0x16 build\kernel\components\drivers\src\ringblk_buf.o
 .rodata.__FUNCTION__.6150
                0x00000000       0x11 build\kernel\components\drivers\src\ringblk_buf.o
 .rodata.str1.1
                0x00000000       0x7e build\kernel\components\drivers\src\ringblk_buf.o
 .rodata.__FUNCTION__.6154
                0x00000000        0xf build\kernel\components\drivers\src\ringblk_buf.o
 .rodata.__FUNCTION__.6233
                0x00000000       0x14 build\kernel\components\drivers\src\ringblk_buf.o
 .rodata.__FUNCTION__.6161
                0x00000000        0xf build\kernel\components\drivers\src\ringblk_buf.o
 .rodata.__FUNCTION__.6207
                0x00000000       0x15 build\kernel\components\drivers\src\ringblk_buf.o
 .rodata.__FUNCTION__.6200
                0x00000000       0x15 build\kernel\components\drivers\src\ringblk_buf.o
 .rodata.__FUNCTION__.6173
                0x00000000        0xf build\kernel\components\drivers\src\ringblk_buf.o
 .rodata.__FUNCTION__.6169
                0x00000000       0x10 build\kernel\components\drivers\src\ringblk_buf.o
 .rodata.__FUNCTION__.6225
                0x00000000       0x1a build\kernel\components\drivers\src\ringblk_buf.o
 .rodata.__FUNCTION__.6117
                0x00000000        0xc build\kernel\components\drivers\src\ringblk_buf.o
 .comment       0x00000000       0x6f build\kernel\components\drivers\src\ringblk_buf.o
 .ARM.attributes
                0x00000000       0x37 build\kernel\components\drivers\src\ringblk_buf.o
 .text          0x00000000        0x0 build\kernel\components\drivers\src\ringbuffer.o
 .data          0x00000000        0x0 build\kernel\components\drivers\src\ringbuffer.o
 .bss           0x00000000        0x0 build\kernel\components\drivers\src\ringbuffer.o
 .text.rt_ringbuffer_init
                0x00000000       0x54 build\kernel\components\drivers\src\ringbuffer.o
 .text.rt_ringbuffer_putchar_force
                0x00000000       0xa0 build\kernel\components\drivers\src\ringbuffer.o
 .text.rt_ringbuffer_data_len
                0x00000000       0x3c build\kernel\components\drivers\src\ringbuffer.o
 .text.rt_ringbuffer_put
                0x00000000       0x98 build\kernel\components\drivers\src\ringbuffer.o
 .text.rt_ringbuffer_put_force
                0x00000000       0xd4 build\kernel\components\drivers\src\ringbuffer.o
 .text.rt_ringbuffer_get
                0x00000000       0x90 build\kernel\components\drivers\src\ringbuffer.o
 .text.rt_ringbuffer_putchar
                0x00000000       0x68 build\kernel\components\drivers\src\ringbuffer.o
 .text.rt_ringbuffer_getchar
                0x00000000       0x64 build\kernel\components\drivers\src\ringbuffer.o
 .text.rt_ringbuffer_reset
                0x00000000       0x3c build\kernel\components\drivers\src\ringbuffer.o
 .text.rt_ringbuffer_create
                0x00000000       0x4c build\kernel\components\drivers\src\ringbuffer.o
 .text.rt_ringbuffer_destroy
                0x00000000       0x2c build\kernel\components\drivers\src\ringbuffer.o
 .rodata.__FUNCTION__.6229
                0x00000000       0x12 build\kernel\components\drivers\src\ringbuffer.o
 .rodata.__FUNCTION__.6236
                0x00000000       0x18 build\kernel\components\drivers\src\ringbuffer.o
 .rodata.__FUNCTION__.6243
                0x00000000       0x12 build\kernel\components\drivers\src\ringbuffer.o
 .rodata.__FUNCTION__.6281
                0x00000000       0x16 build\kernel\components\drivers\src\ringbuffer.o
 .rodata.__FUNCTION__.6248
                0x00000000       0x16 build\kernel\components\drivers\src\ringbuffer.o
 .rodata.__FUNCTION__.6254
                0x00000000       0x1c build\kernel\components\drivers\src\ringbuffer.o
 .rodata.str1.1
                0x00000000       0x17 build\kernel\components\drivers\src\ringbuffer.o
 .rodata.__FUNCTION__.6259
                0x00000000       0x16 build\kernel\components\drivers\src\ringbuffer.o
 .rodata.__FUNCTION__.6270
                0x00000000       0x14 build\kernel\components\drivers\src\ringbuffer.o
 .rodata.__FUNCTION__.6276
                0x00000000       0x15 build\kernel\components\drivers\src\ringbuffer.o
 .rodata.__FUNCTION__.6222
                0x00000000       0x13 build\kernel\components\drivers\src\ringbuffer.o
 .comment       0x00000000       0x6f build\kernel\components\drivers\src\ringbuffer.o
 .ARM.attributes
                0x00000000       0x37 build\kernel\components\drivers\src\ringbuffer.o
 .text          0x00000000        0x0 build\kernel\components\drivers\src\waitqueue.o
 .data          0x00000000        0x0 build\kernel\components\drivers\src\waitqueue.o
 .bss           0x00000000        0x0 build\kernel\components\drivers\src\waitqueue.o
 .text.__wqueue_default_wake
                0x00000000        0x4 build\kernel\components\drivers\src\waitqueue.o
 .text.rt_wqueue_add
                0x00000000       0x20 build\kernel\components\drivers\src\waitqueue.o
 .text.rt_wqueue_remove
                0x00000000       0x20 build\kernel\components\drivers\src\waitqueue.o
 .text.rt_wqueue_wakeup
                0x00000000       0x54 build\kernel\components\drivers\src\waitqueue.o
 .text.rt_wqueue_wait
                0x00000000       0xc0 build\kernel\components\drivers\src\waitqueue.o
 .rodata.__FUNCTION__.6145
                0x00000000        0xf build\kernel\components\drivers\src\waitqueue.o
 .rodata.str1.1
                0x00000000       0x29 build\kernel\components\drivers\src\waitqueue.o
 .comment       0x00000000       0x6f build\kernel\components\drivers\src\waitqueue.o
 .ARM.attributes
                0x00000000       0x37 build\kernel\components\drivers\src\waitqueue.o
 .text          0x00000000        0x0 build\kernel\components\drivers\src\workqueue.o
 .data          0x00000000        0x0 build\kernel\components\drivers\src\workqueue.o
 .bss           0x00000000        0x0 build\kernel\components\drivers\src\workqueue.o
 .text.rt_list_remove
                0x00000000       0x10 build\kernel\components\drivers\src\workqueue.o
 .text._workqueue_thread_entry
                0x00000000       0x80 build\kernel\components\drivers\src\workqueue.o
 .text._workqueue_submit_work
                0x00000000       0x5e build\kernel\components\drivers\src\workqueue.o
 .text._delayed_work_timeout_handler
                0x00000000       0x3c build\kernel\components\drivers\src\workqueue.o
 .text._workqueue_cancel_work.isra.0
                0x00000000       0x34 build\kernel\components\drivers\src\workqueue.o
 .text._workqueue_cancel_delayed_work
                0x00000000       0x60 build\kernel\components\drivers\src\workqueue.o
 .text.rt_workqueue_create
                0x00000000       0x5c build\kernel\components\drivers\src\workqueue.o
 .text.rt_workqueue_destroy
                0x00000000       0x2c build\kernel\components\drivers\src\workqueue.o
 .text.rt_workqueue_dowork
                0x00000000       0x3c build\kernel\components\drivers\src\workqueue.o
 .text.rt_workqueue_submit_work
                0x00000000       0xc0 build\kernel\components\drivers\src\workqueue.o
 .text.rt_workqueue_critical_work
                0x00000000       0x78 build\kernel\components\drivers\src\workqueue.o
 .text.rt_workqueue_cancel_work
                0x00000000       0x4c build\kernel\components\drivers\src\workqueue.o
 .text.rt_workqueue_cancel_work_sync
                0x00000000       0x60 build\kernel\components\drivers\src\workqueue.o
 .text.rt_workqueue_cancel_all_work
                0x00000000       0x38 build\kernel\components\drivers\src\workqueue.o
 .text.rt_delayed_work_init
                0x00000000       0x12 build\kernel\components\drivers\src\workqueue.o
 .rodata.__FUNCTION__.6123
                0x00000000       0x18 build\kernel\components\drivers\src\workqueue.o
 .rodata.__FUNCTION__.6185
                0x00000000       0x19 build\kernel\components\drivers\src\workqueue.o
 .rodata.__FUNCTION__.6191
                0x00000000       0x1e build\kernel\components\drivers\src\workqueue.o
 .rodata.__FUNCTION__.6197
                0x00000000       0x1d build\kernel\components\drivers\src\workqueue.o
 .rodata.str1.1
                0x00000000       0x2d build\kernel\components\drivers\src\workqueue.o
 .rodata.__FUNCTION__.6163
                0x00000000       0x15 build\kernel\components\drivers\src\workqueue.o
 .rodata.__FUNCTION__.6168
                0x00000000       0x14 build\kernel\components\drivers\src\workqueue.o
 .rodata.__FUNCTION__.6174
                0x00000000       0x19 build\kernel\components\drivers\src\workqueue.o
 .rodata.__FUNCTION__.6180
                0x00000000       0x1b build\kernel\components\drivers\src\workqueue.o
 .comment       0x00000000       0x6f build\kernel\components\drivers\src\workqueue.o
 .ARM.attributes
                0x00000000       0x37 build\kernel\components\drivers\src\workqueue.o
 .text          0x00000000        0x0 build\kernel\components\finsh\shell.o
 .data          0x00000000        0x0 build\kernel\components\finsh\shell.o
 .bss           0x00000000        0x0 build\kernel\components\finsh\shell.o
 .text.finsh_set_prompt
                0x00000000       0x34 build\kernel\components\finsh\shell.o
 .text.finsh_get_prompt_mode
                0x00000000       0x2c build\kernel\components\finsh\shell.o
 .text.finsh_get_device
                0x00000000       0x28 build\kernel\components\finsh\shell.o
 .text.finsh_set_echo
                0x00000000       0x34 build\kernel\components\finsh\shell.o
 .text.finsh_get_echo
                0x00000000       0x30 build\kernel\components\finsh\shell.o
 .text.finsh_system_function_init
                0x00000000       0x14 build\kernel\components\finsh\shell.o
 .text.finsh_system_var_init
                0x00000000       0x14 build\kernel\components\finsh\shell.o
 .rodata.__FUNCTION__.7246
                0x00000000       0x16 build\kernel\components\finsh\shell.o
 .rodata.__FUNCTION__.7275
                0x00000000        0xf build\kernel\components\finsh\shell.o
 .rodata.__FUNCTION__.7271
                0x00000000       0x11 build\kernel\components\finsh\shell.o
 .rodata.__FUNCTION__.7278
                0x00000000        0xf build\kernel\components\finsh\shell.o
 .text          0x00000000        0x0 build\kernel\components\finsh\cmd.o
 .data          0x00000000        0x0 build\kernel\components\finsh\cmd.o
 .bss           0x00000000        0x0 build\kernel\components\finsh\cmd.o
 .text          0x00000000        0x0 build\kernel\components\finsh\msh.o
 .data          0x00000000        0x0 build\kernel\components\finsh\msh.o
 .bss           0x00000000        0x0 build\kernel\components\finsh\msh.o
 .text          0x00000000        0x0 build\kernel\components\libc\compilers\common\time.o
 .data          0x00000000        0x0 build\kernel\components\libc\compilers\common\time.o
 .bss           0x00000000        0x0 build\kernel\components\libc\compilers\common\time.o
 .text.num2str  0x00000000       0x18 build\kernel\components\libc\compilers\common\time.o
 .text.__isleap
                0x00000000       0x2c build\kernel\components\libc\compilers\common\time.o
 .text.gmtime_r
                0x00000000       0xac build\kernel\components\libc\compilers\common\time.o
 .text.gmtime   0x00000000        0xc build\kernel\components\libc\compilers\common\time.o
 .text.localtime_r
                0x00000000        0x4 build\kernel\components\libc\compilers\common\time.o
 .text.localtime
                0x00000000        0xc build\kernel\components\libc\compilers\common\time.o
 .text.mktime   0x00000000      0x158 build\kernel\components\libc\compilers\common\time.o
 .text.asctime_r
                0x00000000       0x90 build\kernel\components\libc\compilers\common\time.o
 .text.asctime  0x00000000        0xc build\kernel\components\libc\compilers\common\time.o
 .text.ctime    0x00000000        0xe build\kernel\components\libc\compilers\common\time.o
 .text.gettimeofday
                0x00000000       0x40 build\kernel\components\libc\compilers\common\time.o
 .text.time     0x00000000        0xa build\kernel\components\libc\compilers\common\time.o
 .text.clock    0x00000000        0x4 build\kernel\components\libc\compilers\common\time.o
 .rodata.__FUNCTION__.5693
                0x00000000        0xd build\kernel\components\libc\compilers\common\time.o
 .rodata.months
                0x00000000       0x31 build\kernel\components\libc\compilers\common\time.o
 .rodata.__spm  0x00000000       0x1a build\kernel\components\libc\compilers\common\time.o
 .rodata.days   0x00000000       0x1d build\kernel\components\libc\compilers\common\time.o
 .rodata.str1.1
                0x00000000       0x16 build\kernel\components\libc\compilers\common\time.o
 .bss.buf.5683  0x00000000       0x19 build\kernel\components\libc\compilers\common\time.o
 .bss.tmp.5654  0x00000000       0x24 build\kernel\components\libc\compilers\common\time.o
 .bss.tmp.5662  0x00000000       0x24 build\kernel\components\libc\compilers\common\time.o
 .comment       0x00000000       0x6f build\kernel\components\libc\compilers\common\time.o
 .ARM.attributes
                0x00000000       0x37 build\kernel\components\libc\compilers\common\time.o
 .text          0x00000000        0x0 build\kernel\components\libc\compilers\newlib\libc.o
 .data          0x00000000        0x0 build\kernel\components\libc\compilers\newlib\libc.o
 .bss           0x00000000        0x0 build\kernel\components\libc\compilers\newlib\libc.o
 .text          0x00000000        0x0 build\kernel\components\libc\compilers\newlib\libc_syms.o
 .data          0x00000000        0x0 build\kernel\components\libc\compilers\newlib\libc_syms.o
 .bss           0x00000000        0x0 build\kernel\components\libc\compilers\newlib\libc_syms.o
 .comment       0x00000000       0x6f build\kernel\components\libc\compilers\newlib\libc_syms.o
 .ARM.attributes
                0x00000000       0x37 build\kernel\components\libc\compilers\newlib\libc_syms.o
 .text          0x00000000        0x0 build\kernel\components\libc\compilers\newlib\stdio.o
 .data          0x00000000        0x0 build\kernel\components\libc\compilers\newlib\stdio.o
 .bss           0x00000000        0x0 build\kernel\components\libc\compilers\newlib\stdio.o
 .text.libc_stdio_set_console
                0x00000000       0x98 build\kernel\components\libc\compilers\newlib\stdio.o
 .text.libc_stdio_get_console
                0x00000000       0x14 build\kernel\components\libc\compilers\newlib\stdio.o
 .bss.std_console
                0x00000000        0x4 build\kernel\components\libc\compilers\newlib\stdio.o
 .rodata.str1.1
                0x00000000       0x11 build\kernel\components\libc\compilers\newlib\stdio.o
 .comment       0x00000000       0x6f build\kernel\components\libc\compilers\newlib\stdio.o
 .ARM.attributes
                0x00000000       0x37 build\kernel\components\libc\compilers\newlib\stdio.o
 .text          0x00000000        0x0 build\kernel\components\libc\compilers\newlib\syscalls.o
 .data          0x00000000        0x0 build\kernel\components\libc\compilers\newlib\syscalls.o
 .bss           0x00000000        0x0 build\kernel\components\libc\compilers\newlib\syscalls.o
 .text.__errno  0x00000000        0x4 build\kernel\components\libc\compilers\newlib\syscalls.o
 .text._execve_r
                0x00000000        0xa build\kernel\components\libc\compilers\newlib\syscalls.o
 .text._fcntl_r
                0x00000000        0xa build\kernel\components\libc\compilers\newlib\syscalls.o
 .text._fork_r  0x00000000        0xa build\kernel\components\libc\compilers\newlib\syscalls.o
 .text._getpid_r
                0x00000000        0x4 build\kernel\components\libc\compilers\newlib\syscalls.o
 .text._kill_r  0x00000000        0xa build\kernel\components\libc\compilers\newlib\syscalls.o
 .text._link_r  0x00000000        0xa build\kernel\components\libc\compilers\newlib\syscalls.o
 .text._mkdir_r
                0x00000000        0x4 build\kernel\components\libc\compilers\newlib\syscalls.o
 .text._open_r  0x00000000        0x4 build\kernel\components\libc\compilers\newlib\syscalls.o
 .text._rename_r
                0x00000000        0x4 build\kernel\components\libc\compilers\newlib\syscalls.o
 .text._sbrk_r  0x00000000        0x4 build\kernel\components\libc\compilers\newlib\syscalls.o
 .text._stat_r  0x00000000        0x4 build\kernel\components\libc\compilers\newlib\syscalls.o
 .text._times_r
                0x00000000        0xa build\kernel\components\libc\compilers\newlib\syscalls.o
 .text._unlink_r
                0x00000000        0x4 build\kernel\components\libc\compilers\newlib\syscalls.o
 .text._wait_r  0x00000000        0xa build\kernel\components\libc\compilers\newlib\syscalls.o
 .text.libc_get_time
                0x00000000       0x98 build\kernel\components\libc\compilers\newlib\syscalls.o
 .text._gettimeofday_r
                0x00000000       0x2e build\kernel\components\libc\compilers\newlib\syscalls.o
 .text._calloc_r
                0x00000000       0x14 build\kernel\components\libc\compilers\newlib\syscalls.o
 .text.exit     0x00000000       0x2c build\kernel\components\libc\compilers\newlib\syscalls.o
 .text._system  0x00000000        0x2 build\kernel\components\libc\compilers\newlib\syscalls.o
 .text.__libc_init_array
                0x00000000        0x2 build\kernel\components\libc\compilers\newlib\syscalls.o
 .text.getuid   0x00000000        0x4 build\kernel\components\libc\compilers\newlib\syscalls.o
 .text.umask    0x00000000        0x4 build\kernel\components\libc\compilers\newlib\syscalls.o
 .text.flock    0x00000000        0x4 build\kernel\components\libc\compilers\newlib\syscalls.o
 .rodata.__FUNCTION__.6568
                0x00000000        0x5 build\kernel\components\libc\compilers\newlib\syscalls.o
 .bss._timevalue
                0x00000000        0x8 build\kernel\components\libc\compilers\newlib\syscalls.o
 .rodata.__FUNCTION__.6537
                0x00000000        0xe build\kernel\components\libc\compilers\newlib\syscalls.o
 .bss.inited.6536
                0x00000000        0x4 build\kernel\components\libc\compilers\newlib\syscalls.o
 .text          0x00000000        0x0 libraries\MIMXRT1064\MIMXRT1064\system_MIMXRT1064.o
 .data          0x00000000        0x0 libraries\MIMXRT1064\MIMXRT1064\system_MIMXRT1064.o
 .bss           0x00000000        0x0 libraries\MIMXRT1064\MIMXRT1064\system_MIMXRT1064.o
 .text.SystemCoreClockUpdate
                0x00000000      0x134 libraries\MIMXRT1064\MIMXRT1064\system_MIMXRT1064.o
 .text          0x00000000        0x0 libraries\MIMXRT1064\MIMXRT1064\drivers\fsl_common.o
 .data          0x00000000        0x0 libraries\MIMXRT1064\MIMXRT1064\drivers\fsl_common.o
 .bss           0x00000000        0x0 libraries\MIMXRT1064\MIMXRT1064\drivers\fsl_common.o
 .text.SDK_Malloc
                0x00000000       0x2e libraries\MIMXRT1064\MIMXRT1064\drivers\fsl_common.o
 .text.SDK_Free
                0x00000000       0x18 libraries\MIMXRT1064\MIMXRT1064\drivers\fsl_common.o
 .comment       0x00000000       0x6f libraries\MIMXRT1064\MIMXRT1064\drivers\fsl_common.o
 .ARM.attributes
                0x00000000       0x37 libraries\MIMXRT1064\MIMXRT1064\drivers\fsl_common.o
 .text          0x00000000        0x0 libraries\MIMXRT1064\MIMXRT1064\drivers\fsl_clock.o
 .data          0x00000000        0x0 libraries\MIMXRT1064\MIMXRT1064\drivers\fsl_clock.o
 .bss           0x00000000        0x0 libraries\MIMXRT1064\MIMXRT1064\drivers\fsl_clock.o
 .text.CLOCK_DeinitExternalClk
                0x00000000       0x10 libraries\MIMXRT1064\MIMXRT1064\drivers\fsl_clock.o
 .text.CLOCK_DeinitRcOsc24M
                0x00000000       0x14 libraries\MIMXRT1064\MIMXRT1064\drivers\fsl_clock.o
 .text.CLOCK_EnableUsbhs0Clock
                0x00000000       0x64 libraries\MIMXRT1064\MIMXRT1064\drivers\fsl_clock.o
 .text.CLOCK_EnableUsbhs1Clock
                0x00000000       0x68 libraries\MIMXRT1064\MIMXRT1064\drivers\fsl_clock.o
 .text.CLOCK_DisableUsbhs0PhyPllClock
                0x00000000       0x1c libraries\MIMXRT1064\MIMXRT1064\drivers\fsl_clock.o
 .text.CLOCK_DeinitArmPll
                0x00000000       0x10 libraries\MIMXRT1064\MIMXRT1064\drivers\fsl_clock.o
 .text.CLOCK_InitSysPll
                0x00000000       0x44 libraries\MIMXRT1064\MIMXRT1064\drivers\fsl_clock.o
 .text.CLOCK_DeinitSysPll
                0x00000000       0x10 libraries\MIMXRT1064\MIMXRT1064\drivers\fsl_clock.o
 .text.CLOCK_InitUsb1Pll
                0x00000000       0x48 libraries\MIMXRT1064\MIMXRT1064\drivers\fsl_clock.o
 .text.CLOCK_EnableUsbhs0PhyPllClock
                0x00000000       0x50 libraries\MIMXRT1064\MIMXRT1064\drivers\fsl_clock.o
 .text.CLOCK_DeinitUsb1Pll
                0x00000000        0xc libraries\MIMXRT1064\MIMXRT1064\drivers\fsl_clock.o
 .text.CLOCK_InitUsb2Pll
                0x00000000       0x48 libraries\MIMXRT1064\MIMXRT1064\drivers\fsl_clock.o
 .text.CLOCK_InitAudioPll
                0x00000000       0xa4 libraries\MIMXRT1064\MIMXRT1064\drivers\fsl_clock.o
 .text.CLOCK_InitVideoPll
                0x00000000       0xac libraries\MIMXRT1064\MIMXRT1064\drivers\fsl_clock.o
 .text.CLOCK_InitEnetPll
                0x00000000       0x74 libraries\MIMXRT1064\MIMXRT1064\drivers\fsl_clock.o
 .text.CLOCK_InitSysPfd
                0x00000000       0x30 libraries\MIMXRT1064\MIMXRT1064\drivers\fsl_clock.o
 .text.CLOCK_DeinitSysPfd
                0x00000000       0x1c libraries\MIMXRT1064\MIMXRT1064\drivers\fsl_clock.o
 .text.CLOCK_InitUsb1Pfd
                0x00000000       0x30 libraries\MIMXRT1064\MIMXRT1064\drivers\fsl_clock.o
 .text.CLOCK_DeinitUsb1Pfd
                0x00000000       0x1c libraries\MIMXRT1064\MIMXRT1064\drivers\fsl_clock.o
 .text.CLOCK_GetSysPfdFreq
                0x00000000       0x5c libraries\MIMXRT1064\MIMXRT1064\drivers\fsl_clock.o
 .text.CLOCK_GetPeriphClkFreq
                0x00000000       0x94 libraries\MIMXRT1064\MIMXRT1064\drivers\fsl_clock.o
 .text.CLOCK_GetAhbFreq
                0x00000000       0x1c libraries\MIMXRT1064\MIMXRT1064\drivers\fsl_clock.o
 .text.CLOCK_GetIpgFreq
                0x00000000       0x1c libraries\MIMXRT1064\MIMXRT1064\drivers\fsl_clock.o
 .text.CLOCK_GetPerClkFreq
                0x00000000       0x2c libraries\MIMXRT1064\MIMXRT1064\drivers\fsl_clock.o
 .text.CLOCK_GetUsb1PfdFreq
                0x00000000       0x5c libraries\MIMXRT1064\MIMXRT1064\drivers\fsl_clock.o
 .text.CLOCK_GetSemcFreq
                0x00000000       0x38 libraries\MIMXRT1064\MIMXRT1064\drivers\fsl_clock.o
 .text.CLOCK_GetFreq
                0x00000000       0xa8 libraries\MIMXRT1064\MIMXRT1064\drivers\fsl_clock.o
 .text.CLOCK_EnableUsbhs1PhyPllClock
                0x00000000       0x34 libraries\MIMXRT1064\MIMXRT1064\drivers\fsl_clock.o
 .text.CLOCK_DisableUsbhs1PhyPllClock
                0x00000000       0x1c libraries\MIMXRT1064\MIMXRT1064\drivers\fsl_clock.o
 .text          0x00000000        0x0 libraries\MIMXRT1064\MIMXRT1064\drivers\fsl_cache.o
 .data          0x00000000        0x0 libraries\MIMXRT1064\MIMXRT1064\drivers\fsl_cache.o
 .bss           0x00000000        0x0 libraries\MIMXRT1064\MIMXRT1064\drivers\fsl_cache.o
 .text.L1CACHE_InvalidateICacheByRange
                0x00000000       0x2c libraries\MIMXRT1064\MIMXRT1064\drivers\fsl_cache.o
 .text.ICACHE_InvalidateByRange
                0x00000000        0x4 libraries\MIMXRT1064\MIMXRT1064\drivers\fsl_cache.o
 .text.DCACHE_InvalidateByRange
                0x00000000       0x2c libraries\MIMXRT1064\MIMXRT1064\drivers\fsl_cache.o
 .text.DCACHE_CleanByRange
                0x00000000       0x2c libraries\MIMXRT1064\MIMXRT1064\drivers\fsl_cache.o
 .text.DCACHE_CleanInvalidateByRange
                0x00000000       0x2c libraries\MIMXRT1064\MIMXRT1064\drivers\fsl_cache.o
 .comment       0x00000000       0x6f libraries\MIMXRT1064\MIMXRT1064\drivers\fsl_cache.o
 .ARM.attributes
                0x00000000       0x37 libraries\MIMXRT1064\MIMXRT1064\drivers\fsl_cache.o
 .data          0x00000000        0x0 libraries\MIMXRT1064\MIMXRT1064\gcc\startup_MIMXRT1064.o
 .bss           0x00000000        0x0 libraries\MIMXRT1064\MIMXRT1064\gcc\startup_MIMXRT1064.o
 .text          0x00000000        0x0 libraries\MIMXRT1064\MIMXRT1064\drivers\fsl_gpio.o
 .data          0x00000000        0x0 libraries\MIMXRT1064\MIMXRT1064\drivers\fsl_gpio.o
 .bss           0x00000000        0x0 libraries\MIMXRT1064\MIMXRT1064\drivers\fsl_gpio.o
 .text          0x00000000        0x0 libraries\MIMXRT1064\MIMXRT1064\drivers\fsl_lpuart.o
 .data          0x00000000        0x0 libraries\MIMXRT1064\MIMXRT1064\drivers\fsl_lpuart.o
 .bss           0x00000000        0x0 libraries\MIMXRT1064\MIMXRT1064\drivers\fsl_lpuart.o
 .text.LPUART_ReadNonBlocking
                0x00000000       0x48 libraries\MIMXRT1064\MIMXRT1064\drivers\fsl_lpuart.o
 .text.unlikely.LPUART_TransferIsRxRingBufferFull.part.4
                0x00000000       0x1c libraries\MIMXRT1064\MIMXRT1064\drivers\fsl_lpuart.o
 .text.LPUART_TransferGetRxRingBufferLength
                0x00000000       0x44 libraries\MIMXRT1064\MIMXRT1064\drivers\fsl_lpuart.o
 .text.LPUART_Deinit
                0x00000000       0x38 libraries\MIMXRT1064\MIMXRT1064\drivers\fsl_lpuart.o
 .text.LPUART_SetBaudRate
                0x00000000       0xc4 libraries\MIMXRT1064\MIMXRT1064\drivers\fsl_lpuart.o
 .text.LPUART_DisableInterrupts
                0x00000000       0x2e libraries\MIMXRT1064\MIMXRT1064\drivers\fsl_lpuart.o
 .text.LPUART_TransferHandleIRQ
                0x00000000      0x270 libraries\MIMXRT1064\MIMXRT1064\drivers\fsl_lpuart.o
 .text.LPUART_GetEnabledInterrupts
                0x00000000       0x26 libraries\MIMXRT1064\MIMXRT1064\drivers\fsl_lpuart.o
 .text.LPUART_WriteBlocking
                0x00000000       0x34 libraries\MIMXRT1064\MIMXRT1064\drivers\fsl_lpuart.o
 .text.LPUART_ReadBlocking
                0x00000000       0xb0 libraries\MIMXRT1064\MIMXRT1064\drivers\fsl_lpuart.o
 .text.LPUART_TransferCreateHandle
                0x00000000       0xa4 libraries\MIMXRT1064\MIMXRT1064\drivers\fsl_lpuart.o
 .text.LPUART_TransferStartRingBuffer
                0x00000000       0x44 libraries\MIMXRT1064\MIMXRT1064\drivers\fsl_lpuart.o
 .text.LPUART_TransferStopRingBuffer
                0x00000000       0x3c libraries\MIMXRT1064\MIMXRT1064\drivers\fsl_lpuart.o
 .text.LPUART_TransferSendNonBlocking
                0x00000000       0x78 libraries\MIMXRT1064\MIMXRT1064\drivers\fsl_lpuart.o
 .text.LPUART_TransferAbortSend
                0x00000000       0x34 libraries\MIMXRT1064\MIMXRT1064\drivers\fsl_lpuart.o
 .text.LPUART_TransferGetSendCount
                0x00000000       0x44 libraries\MIMXRT1064\MIMXRT1064\drivers\fsl_lpuart.o
 .text.LPUART_TransferReceiveNonBlocking
                0x00000000      0x114 libraries\MIMXRT1064\MIMXRT1064\drivers\fsl_lpuart.o
 .text.LPUART_TransferAbortReceive
                0x00000000       0x38 libraries\MIMXRT1064\MIMXRT1064\drivers\fsl_lpuart.o
 .text.LPUART_TransferGetReceiveCount
                0x00000000       0x48 libraries\MIMXRT1064\MIMXRT1064\drivers\fsl_lpuart.o
 .text.LPUART_TransferHandleErrorIRQ
                0x00000000        0x2 libraries\MIMXRT1064\MIMXRT1064\drivers\fsl_lpuart.o
 .rodata.__func__.9798
                0x00000000       0x14 libraries\MIMXRT1064\MIMXRT1064\drivers\fsl_lpuart.o
 .rodata.s_lpuartIRQ
                0x00000000       0x12 libraries\MIMXRT1064\MIMXRT1064\drivers\fsl_lpuart.o
 .rodata.__func__.9678
                0x00000000       0x25 libraries\MIMXRT1064\MIMXRT1064\drivers\fsl_lpuart.o
 .rodata.__func__.9684
                0x00000000       0x22 libraries\MIMXRT1064\MIMXRT1064\drivers\fsl_lpuart.o
 .rodata.__func__.9867
                0x00000000       0x1c libraries\MIMXRT1064\MIMXRT1064\drivers\fsl_lpuart.o
 .rodata.__func__.9691
                0x00000000       0x18 libraries\MIMXRT1064\MIMXRT1064\drivers\fsl_lpuart.o
 .rodata.__func__.9873
                0x00000000       0x1f libraries\MIMXRT1064\MIMXRT1064\drivers\fsl_lpuart.o
 .rodata.__func__.9878
                0x00000000       0x19 libraries\MIMXRT1064\MIMXRT1064\drivers\fsl_lpuart.o
 .rodata.__func__.9746
                0x00000000       0x13 libraries\MIMXRT1064\MIMXRT1064\drivers\fsl_lpuart.o
 .rodata.__func__.9854
                0x00000000       0x22 libraries\MIMXRT1064\MIMXRT1064\drivers\fsl_lpuart.o
 .rodata.__func__.9814
                0x00000000       0x1c libraries\MIMXRT1064\MIMXRT1064\drivers\fsl_lpuart.o
 .rodata.__func__.9824
                0x00000000       0x1f libraries\MIMXRT1064\MIMXRT1064\drivers\fsl_lpuart.o
 .rodata.__func__.9786
                0x00000000       0x15 libraries\MIMXRT1064\MIMXRT1064\drivers\fsl_lpuart.o
 .rodata.__func__.9829
                0x00000000       0x1e libraries\MIMXRT1064\MIMXRT1064\drivers\fsl_lpuart.o
 .rodata.__func__.9835
                0x00000000       0x1f libraries\MIMXRT1064\MIMXRT1064\drivers\fsl_lpuart.o
 .rodata.__func__.9841
                0x00000000       0x19 libraries\MIMXRT1064\MIMXRT1064\drivers\fsl_lpuart.o
 .rodata.__func__.9701
                0x00000000       0x17 libraries\MIMXRT1064\MIMXRT1064\drivers\fsl_lpuart.o
 .rodata.__func__.9847
                0x00000000       0x1c libraries\MIMXRT1064\MIMXRT1064\drivers\fsl_lpuart.o
 .text          0x00000000        0x0 libraries\drivers\drv_gpio.o
 .data          0x00000000        0x0 libraries\drivers\drv_gpio.o
 .bss           0x00000000        0x0 libraries\drivers\drv_gpio.o
 .text          0x00000000        0x0 libraries\drivers\drv_uart.o
 .data          0x00000000        0x0 libraries\drivers\drv_uart.o
 .bss           0x00000000        0x0 libraries\drivers\drv_uart.o
 .text          0x00000000        0x0 c:/users/yaxing.chen/downloads/env_released_1.2.0/env/tools/gnu_gcc/arm_gcc/mingw/bin/../lib/gcc/arm-none-eabi/5.4.1/../../../../arm-none-eabi/lib/armv7e-m/fpu/fpv5-d16\libc.a(lib_a-assert.o)
 .data          0x00000000        0x0 c:/users/yaxing.chen/downloads/env_released_1.2.0/env/tools/gnu_gcc/arm_gcc/mingw/bin/../lib/gcc/arm-none-eabi/5.4.1/../../../../arm-none-eabi/lib/armv7e-m/fpu/fpv5-d16\libc.a(lib_a-assert.o)
 .bss           0x00000000        0x0 c:/users/yaxing.chen/downloads/env_released_1.2.0/env/tools/gnu_gcc/arm_gcc/mingw/bin/../lib/gcc/arm-none-eabi/5.4.1/../../../../arm-none-eabi/lib/armv7e-m/fpu/fpv5-d16\libc.a(lib_a-assert.o)
 .text.__assert
                0x00000000        0xc c:/users/yaxing.chen/downloads/env_released_1.2.0/env/tools/gnu_gcc/arm_gcc/mingw/bin/../lib/gcc/arm-none-eabi/5.4.1/../../../../arm-none-eabi/lib/armv7e-m/fpu/fpv5-d16\libc.a(lib_a-assert.o)
 .text          0x00000000        0x0 c:/users/yaxing.chen/downloads/env_released_1.2.0/env/tools/gnu_gcc/arm_gcc/mingw/bin/../lib/gcc/arm-none-eabi/5.4.1/../../../../arm-none-eabi/lib/armv7e-m/fpu/fpv5-d16\libc.a(lib_a-fclose.o)
 .data          0x00000000        0x0 c:/users/yaxing.chen/downloads/env_released_1.2.0/env/tools/gnu_gcc/arm_gcc/mingw/bin/../lib/gcc/arm-none-eabi/5.4.1/../../../../arm-none-eabi/lib/armv7e-m/fpu/fpv5-d16\libc.a(lib_a-fclose.o)
 .bss           0x00000000        0x0 c:/users/yaxing.chen/downloads/env_released_1.2.0/env/tools/gnu_gcc/arm_gcc/mingw/bin/../lib/gcc/arm-none-eabi/5.4.1/../../../../arm-none-eabi/lib/armv7e-m/fpu/fpv5-d16\libc.a(lib_a-fclose.o)
 .text.fclose   0x00000000       0x10 c:/users/yaxing.chen/downloads/env_released_1.2.0/env/tools/gnu_gcc/arm_gcc/mingw/bin/../lib/gcc/arm-none-eabi/5.4.1/../../../../arm-none-eabi/lib/armv7e-m/fpu/fpv5-d16\libc.a(lib_a-fclose.o)
 .text          0x00000000        0x0 c:/users/yaxing.chen/downloads/env_released_1.2.0/env/tools/gnu_gcc/arm_gcc/mingw/bin/../lib/gcc/arm-none-eabi/5.4.1/../../../../arm-none-eabi/lib/armv7e-m/fpu/fpv5-d16\libc.a(lib_a-fflush.o)
 .data          0x00000000        0x0 c:/users/yaxing.chen/downloads/env_released_1.2.0/env/tools/gnu_gcc/arm_gcc/mingw/bin/../lib/gcc/arm-none-eabi/5.4.1/../../../../arm-none-eabi/lib/armv7e-m/fpu/fpv5-d16\libc.a(lib_a-fflush.o)
 .bss           0x00000000        0x0 c:/users/yaxing.chen/downloads/env_released_1.2.0/env/tools/gnu_gcc/arm_gcc/mingw/bin/../lib/gcc/arm-none-eabi/5.4.1/../../../../arm-none-eabi/lib/armv7e-m/fpu/fpv5-d16\libc.a(lib_a-fflush.o)
 .text.fflush   0x00000000       0x24 c:/users/yaxing.chen/downloads/env_released_1.2.0/env/tools/gnu_gcc/arm_gcc/mingw/bin/../lib/gcc/arm-none-eabi/5.4.1/../../../../arm-none-eabi/lib/armv7e-m/fpu/fpv5-d16\libc.a(lib_a-fflush.o)
 .text          0x00000000        0x0 c:/users/yaxing.chen/downloads/env_released_1.2.0/env/tools/gnu_gcc/arm_gcc/mingw/bin/../lib/gcc/arm-none-eabi/5.4.1/../../../../arm-none-eabi/lib/armv7e-m/fpu/fpv5-d16\libc.a(lib_a-fileno.o)
 .data          0x00000000        0x0 c:/users/yaxing.chen/downloads/env_released_1.2.0/env/tools/gnu_gcc/arm_gcc/mingw/bin/../lib/gcc/arm-none-eabi/5.4.1/../../../../arm-none-eabi/lib/armv7e-m/fpu/fpv5-d16\libc.a(lib_a-fileno.o)
 .bss           0x00000000        0x0 c:/users/yaxing.chen/downloads/env_released_1.2.0/env/tools/gnu_gcc/arm_gcc/mingw/bin/../lib/gcc/arm-none-eabi/5.4.1/../../../../arm-none-eabi/lib/armv7e-m/fpu/fpv5-d16\libc.a(lib_a-fileno.o)
 .text          0x00000000        0x0 c:/users/yaxing.chen/downloads/env_released_1.2.0/env/tools/gnu_gcc/arm_gcc/mingw/bin/../lib/gcc/arm-none-eabi/5.4.1/../../../../arm-none-eabi/lib/armv7e-m/fpu/fpv5-d16\libc.a(lib_a-findfp.o)
 .data          0x00000000        0x0 c:/users/yaxing.chen/downloads/env_released_1.2.0/env/tools/gnu_gcc/arm_gcc/mingw/bin/../lib/gcc/arm-none-eabi/5.4.1/../../../../arm-none-eabi/lib/armv7e-m/fpu/fpv5-d16\libc.a(lib_a-findfp.o)
 .bss           0x00000000        0x0 c:/users/yaxing.chen/downloads/env_released_1.2.0/env/tools/gnu_gcc/arm_gcc/mingw/bin/../lib/gcc/arm-none-eabi/5.4.1/../../../../arm-none-eabi/lib/armv7e-m/fpu/fpv5-d16\libc.a(lib_a-findfp.o)
 .text.__fp_unlock
                0x00000000        0x4 c:/users/yaxing.chen/downloads/env_released_1.2.0/env/tools/gnu_gcc/arm_gcc/mingw/bin/../lib/gcc/arm-none-eabi/5.4.1/../../../../arm-none-eabi/lib/armv7e-m/fpu/fpv5-d16\libc.a(lib_a-findfp.o)
 .text.__fp_lock
                0x00000000        0x4 c:/users/yaxing.chen/downloads/env_released_1.2.0/env/tools/gnu_gcc/arm_gcc/mingw/bin/../lib/gcc/arm-none-eabi/5.4.1/../../../../arm-none-eabi/lib/armv7e-m/fpu/fpv5-d16\libc.a(lib_a-findfp.o)
 .text.__sfmoreglue
                0x00000000       0x30 c:/users/yaxing.chen/downloads/env_released_1.2.0/env/tools/gnu_gcc/arm_gcc/mingw/bin/../lib/gcc/arm-none-eabi/5.4.1/../../../../arm-none-eabi/lib/armv7e-m/fpu/fpv5-d16\libc.a(lib_a-findfp.o)
 .text.__sfp    0x00000000       0x88 c:/users/yaxing.chen/downloads/env_released_1.2.0/env/tools/gnu_gcc/arm_gcc/mingw/bin/../lib/gcc/arm-none-eabi/5.4.1/../../../../arm-none-eabi/lib/armv7e-m/fpu/fpv5-d16\libc.a(lib_a-findfp.o)
 .text._cleanup
                0x00000000       0x14 c:/users/yaxing.chen/downloads/env_released_1.2.0/env/tools/gnu_gcc/arm_gcc/mingw/bin/../lib/gcc/arm-none-eabi/5.4.1/../../../../arm-none-eabi/lib/armv7e-m/fpu/fpv5-d16\libc.a(lib_a-findfp.o)
 .text.__sinit_lock_acquire
                0x00000000        0x4 c:/users/yaxing.chen/downloads/env_released_1.2.0/env/tools/gnu_gcc/arm_gcc/mingw/bin/../lib/gcc/arm-none-eabi/5.4.1/../../../../arm-none-eabi/lib/armv7e-m/fpu/fpv5-d16\libc.a(lib_a-findfp.o)
 .text.__sinit_lock_release
                0x00000000        0x4 c:/users/yaxing.chen/downloads/env_released_1.2.0/env/tools/gnu_gcc/arm_gcc/mingw/bin/../lib/gcc/arm-none-eabi/5.4.1/../../../../arm-none-eabi/lib/armv7e-m/fpu/fpv5-d16\libc.a(lib_a-findfp.o)
 .text.__fp_lock_all
                0x00000000       0x14 c:/users/yaxing.chen/downloads/env_released_1.2.0/env/tools/gnu_gcc/arm_gcc/mingw/bin/../lib/gcc/arm-none-eabi/5.4.1/../../../../arm-none-eabi/lib/armv7e-m/fpu/fpv5-d16\libc.a(lib_a-findfp.o)
 .text.__fp_unlock_all
                0x00000000       0x14 c:/users/yaxing.chen/downloads/env_released_1.2.0/env/tools/gnu_gcc/arm_gcc/mingw/bin/../lib/gcc/arm-none-eabi/5.4.1/../../../../arm-none-eabi/lib/armv7e-m/fpu/fpv5-d16\libc.a(lib_a-findfp.o)
 .text          0x00000000        0x0 c:/users/yaxing.chen/downloads/env_released_1.2.0/env/tools/gnu_gcc/arm_gcc/mingw/bin/../lib/gcc/arm-none-eabi/5.4.1/../../../../arm-none-eabi/lib/armv7e-m/fpu/fpv5-d16\libc.a(lib_a-fiprintf.o)
 .data          0x00000000        0x0 c:/users/yaxing.chen/downloads/env_released_1.2.0/env/tools/gnu_gcc/arm_gcc/mingw/bin/../lib/gcc/arm-none-eabi/5.4.1/../../../../arm-none-eabi/lib/armv7e-m/fpu/fpv5-d16\libc.a(lib_a-fiprintf.o)
 .bss           0x00000000        0x0 c:/users/yaxing.chen/downloads/env_released_1.2.0/env/tools/gnu_gcc/arm_gcc/mingw/bin/../lib/gcc/arm-none-eabi/5.4.1/../../../../arm-none-eabi/lib/armv7e-m/fpu/fpv5-d16\libc.a(lib_a-fiprintf.o)
 .text._fiprintf_r
                0x00000000       0x1c c:/users/yaxing.chen/downloads/env_released_1.2.0/env/tools/gnu_gcc/arm_gcc/mingw/bin/../lib/gcc/arm-none-eabi/5.4.1/../../../../arm-none-eabi/lib/armv7e-m/fpu/fpv5-d16\libc.a(lib_a-fiprintf.o)
 .text          0x00000000        0x0 c:/users/yaxing.chen/downloads/env_released_1.2.0/env/tools/gnu_gcc/arm_gcc/mingw/bin/../lib/gcc/arm-none-eabi/5.4.1/../../../../arm-none-eabi/lib/armv7e-m/fpu/fpv5-d16\libc.a(lib_a-fopen.o)
 .data          0x00000000        0x0 c:/users/yaxing.chen/downloads/env_released_1.2.0/env/tools/gnu_gcc/arm_gcc/mingw/bin/../lib/gcc/arm-none-eabi/5.4.1/../../../../arm-none-eabi/lib/armv7e-m/fpu/fpv5-d16\libc.a(lib_a-fopen.o)
 .bss           0x00000000        0x0 c:/users/yaxing.chen/downloads/env_released_1.2.0/env/tools/gnu_gcc/arm_gcc/mingw/bin/../lib/gcc/arm-none-eabi/5.4.1/../../../../arm-none-eabi/lib/armv7e-m/fpu/fpv5-d16\libc.a(lib_a-fopen.o)
 .text._fopen_r
                0x00000000       0x8c c:/users/yaxing.chen/downloads/env_released_1.2.0/env/tools/gnu_gcc/arm_gcc/mingw/bin/../lib/gcc/arm-none-eabi/5.4.1/../../../../arm-none-eabi/lib/armv7e-m/fpu/fpv5-d16\libc.a(lib_a-fopen.o)
 .text.fopen    0x00000000       0x10 c:/users/yaxing.chen/downloads/env_released_1.2.0/env/tools/gnu_gcc/arm_gcc/mingw/bin/../lib/gcc/arm-none-eabi/5.4.1/../../../../arm-none-eabi/lib/armv7e-m/fpu/fpv5-d16\libc.a(lib_a-fopen.o)
 .debug_frame   0x00000000       0x54 c:/users/yaxing.chen/downloads/env_released_1.2.0/env/tools/gnu_gcc/arm_gcc/mingw/bin/../lib/gcc/arm-none-eabi/5.4.1/../../../../arm-none-eabi/lib/armv7e-m/fpu/fpv5-d16\libc.a(lib_a-fopen.o)
 .ARM.attributes
                0x00000000       0x32 c:/users/yaxing.chen/downloads/env_released_1.2.0/env/tools/gnu_gcc/arm_gcc/mingw/bin/../lib/gcc/arm-none-eabi/5.4.1/../../../../arm-none-eabi/lib/armv7e-m/fpu/fpv5-d16\libc.a(lib_a-fopen.o)
 .text          0x00000000        0x0 c:/users/yaxing.chen/downloads/env_released_1.2.0/env/tools/gnu_gcc/arm_gcc/mingw/bin/../lib/gcc/arm-none-eabi/5.4.1/../../../../arm-none-eabi/lib/armv7e-m/fpu/fpv5-d16\libc.a(lib_a-fseek.o)
 .data          0x00000000        0x0 c:/users/yaxing.chen/downloads/env_released_1.2.0/env/tools/gnu_gcc/arm_gcc/mingw/bin/../lib/gcc/arm-none-eabi/5.4.1/../../../../arm-none-eabi/lib/armv7e-m/fpu/fpv5-d16\libc.a(lib_a-fseek.o)
 .bss           0x00000000        0x0 c:/users/yaxing.chen/downloads/env_released_1.2.0/env/tools/gnu_gcc/arm_gcc/mingw/bin/../lib/gcc/arm-none-eabi/5.4.1/../../../../arm-none-eabi/lib/armv7e-m/fpu/fpv5-d16\libc.a(lib_a-fseek.o)
 .text._fseek_r
                0x00000000        0x4 c:/users/yaxing.chen/downloads/env_released_1.2.0/env/tools/gnu_gcc/arm_gcc/mingw/bin/../lib/gcc/arm-none-eabi/5.4.1/../../../../arm-none-eabi/lib/armv7e-m/fpu/fpv5-d16\libc.a(lib_a-fseek.o)
 .text.fseek    0x00000000       0x18 c:/users/yaxing.chen/downloads/env_released_1.2.0/env/tools/gnu_gcc/arm_gcc/mingw/bin/../lib/gcc/arm-none-eabi/5.4.1/../../../../arm-none-eabi/lib/armv7e-m/fpu/fpv5-d16\libc.a(lib_a-fseek.o)
 .debug_frame   0x00000000       0x3c c:/users/yaxing.chen/downloads/env_released_1.2.0/env/tools/gnu_gcc/arm_gcc/mingw/bin/../lib/gcc/arm-none-eabi/5.4.1/../../../../arm-none-eabi/lib/armv7e-m/fpu/fpv5-d16\libc.a(lib_a-fseek.o)
 .ARM.attributes
                0x00000000       0x32 c:/users/yaxing.chen/downloads/env_released_1.2.0/env/tools/gnu_gcc/arm_gcc/mingw/bin/../lib/gcc/arm-none-eabi/5.4.1/../../../../arm-none-eabi/lib/armv7e-m/fpu/fpv5-d16\libc.a(lib_a-fseek.o)
 .text          0x00000000        0x0 c:/users/yaxing.chen/downloads/env_released_1.2.0/env/tools/gnu_gcc/arm_gcc/mingw/bin/../lib/gcc/arm-none-eabi/5.4.1/../../../../arm-none-eabi/lib/armv7e-m/fpu/fpv5-d16\libc.a(lib_a-fseeko.o)
 .data          0x00000000        0x0 c:/users/yaxing.chen/downloads/env_released_1.2.0/env/tools/gnu_gcc/arm_gcc/mingw/bin/../lib/gcc/arm-none-eabi/5.4.1/../../../../arm-none-eabi/lib/armv7e-m/fpu/fpv5-d16\libc.a(lib_a-fseeko.o)
 .bss           0x00000000        0x0 c:/users/yaxing.chen/downloads/env_released_1.2.0/env/tools/gnu_gcc/arm_gcc/mingw/bin/../lib/gcc/arm-none-eabi/5.4.1/../../../../arm-none-eabi/lib/armv7e-m/fpu/fpv5-d16\libc.a(lib_a-fseeko.o)
 .text._fseeko_r
                0x00000000      0x2c0 c:/users/yaxing.chen/downloads/env_released_1.2.0/env/tools/gnu_gcc/arm_gcc/mingw/bin/../lib/gcc/arm-none-eabi/5.4.1/../../../../arm-none-eabi/lib/armv7e-m/fpu/fpv5-d16\libc.a(lib_a-fseeko.o)
 .text.fseeko   0x00000000       0x18 c:/users/yaxing.chen/downloads/env_released_1.2.0/env/tools/gnu_gcc/arm_gcc/mingw/bin/../lib/gcc/arm-none-eabi/5.4.1/../../../../arm-none-eabi/lib/armv7e-m/fpu/fpv5-d16\libc.a(lib_a-fseeko.o)
 .debug_frame   0x00000000       0x68 c:/users/yaxing.chen/downloads/env_released_1.2.0/env/tools/gnu_gcc/arm_gcc/mingw/bin/../lib/gcc/arm-none-eabi/5.4.1/../../../../arm-none-eabi/lib/armv7e-m/fpu/fpv5-d16\libc.a(lib_a-fseeko.o)
 .ARM.attributes
                0x00000000       0x32 c:/users/yaxing.chen/downloads/env_released_1.2.0/env/tools/gnu_gcc/arm_gcc/mingw/bin/../lib/gcc/arm-none-eabi/5.4.1/../../../../arm-none-eabi/lib/armv7e-m/fpu/fpv5-d16\libc.a(lib_a-fseeko.o)
 .text          0x00000000        0x0 c:/users/yaxing.chen/downloads/env_released_1.2.0/env/tools/gnu_gcc/arm_gcc/mingw/bin/../lib/gcc/arm-none-eabi/5.4.1/../../../../arm-none-eabi/lib/armv7e-m/fpu/fpv5-d16\libc.a(lib_a-fwalk.o)
 .data          0x00000000        0x0 c:/users/yaxing.chen/downloads/env_released_1.2.0/env/tools/gnu_gcc/arm_gcc/mingw/bin/../lib/gcc/arm-none-eabi/5.4.1/../../../../arm-none-eabi/lib/armv7e-m/fpu/fpv5-d16\libc.a(lib_a-fwalk.o)
 .bss           0x00000000        0x0 c:/users/yaxing.chen/downloads/env_released_1.2.0/env/tools/gnu_gcc/arm_gcc/mingw/bin/../lib/gcc/arm-none-eabi/5.4.1/../../../../arm-none-eabi/lib/armv7e-m/fpu/fpv5-d16\libc.a(lib_a-fwalk.o)
 .text._fwalk   0x00000000       0x4c c:/users/yaxing.chen/downloads/env_released_1.2.0/env/tools/gnu_gcc/arm_gcc/mingw/bin/../lib/gcc/arm-none-eabi/5.4.1/../../../../arm-none-eabi/lib/armv7e-m/fpu/fpv5-d16\libc.a(lib_a-fwalk.o)
 .text          0x00000000        0x0 c:/users/yaxing.chen/downloads/env_released_1.2.0/env/tools/gnu_gcc/arm_gcc/mingw/bin/../lib/gcc/arm-none-eabi/5.4.1/../../../../arm-none-eabi/lib/armv7e-m/fpu/fpv5-d16\libc.a(lib_a-impure.o)
 .data          0x00000000        0x0 c:/users/yaxing.chen/downloads/env_released_1.2.0/env/tools/gnu_gcc/arm_gcc/mingw/bin/../lib/gcc/arm-none-eabi/5.4.1/../../../../arm-none-eabi/lib/armv7e-m/fpu/fpv5-d16\libc.a(lib_a-impure.o)
 .bss           0x00000000        0x0 c:/users/yaxing.chen/downloads/env_released_1.2.0/env/tools/gnu_gcc/arm_gcc/mingw/bin/../lib/gcc/arm-none-eabi/5.4.1/../../../../arm-none-eabi/lib/armv7e-m/fpu/fpv5-d16\libc.a(lib_a-impure.o)
 .rodata._global_impure_ptr
                0x00000000        0x4 c:/users/yaxing.chen/downloads/env_released_1.2.0/env/tools/gnu_gcc/arm_gcc/mingw/bin/../lib/gcc/arm-none-eabi/5.4.1/../../../../arm-none-eabi/lib/armv7e-m/fpu/fpv5-d16\libc.a(lib_a-impure.o)
 .text          0x00000000        0x0 c:/users/yaxing.chen/downloads/env_released_1.2.0/env/tools/gnu_gcc/arm_gcc/mingw/bin/../lib/gcc/arm-none-eabi/5.4.1/../../../../arm-none-eabi/lib/armv7e-m/fpu/fpv5-d16\libc.a(lib_a-makebuf.o)
 .data          0x00000000        0x0 c:/users/yaxing.chen/downloads/env_released_1.2.0/env/tools/gnu_gcc/arm_gcc/mingw/bin/../lib/gcc/arm-none-eabi/5.4.1/../../../../arm-none-eabi/lib/armv7e-m/fpu/fpv5-d16\libc.a(lib_a-makebuf.o)
 .bss           0x00000000        0x0 c:/users/yaxing.chen/downloads/env_released_1.2.0/env/tools/gnu_gcc/arm_gcc/mingw/bin/../lib/gcc/arm-none-eabi/5.4.1/../../../../arm-none-eabi/lib/armv7e-m/fpu/fpv5-d16\libc.a(lib_a-makebuf.o)
 .text          0x00000000        0x0 c:/users/yaxing.chen/downloads/env_released_1.2.0/env/tools/gnu_gcc/arm_gcc/mingw/bin/../lib/gcc/arm-none-eabi/5.4.1/../../../../arm-none-eabi/lib/armv7e-m/fpu/fpv5-d16\libc.a(lib_a-malloc.o)
 .data          0x00000000        0x0 c:/users/yaxing.chen/downloads/env_released_1.2.0/env/tools/gnu_gcc/arm_gcc/mingw/bin/../lib/gcc/arm-none-eabi/5.4.1/../../../../arm-none-eabi/lib/armv7e-m/fpu/fpv5-d16\libc.a(lib_a-malloc.o)
 .bss           0x00000000        0x0 c:/users/yaxing.chen/downloads/env_released_1.2.0/env/tools/gnu_gcc/arm_gcc/mingw/bin/../lib/gcc/arm-none-eabi/5.4.1/../../../../arm-none-eabi/lib/armv7e-m/fpu/fpv5-d16\libc.a(lib_a-malloc.o)
 .text.malloc   0x00000000       0x10 c:/users/yaxing.chen/downloads/env_released_1.2.0/env/tools/gnu_gcc/arm_gcc/mingw/bin/../lib/gcc/arm-none-eabi/5.4.1/../../../../arm-none-eabi/lib/armv7e-m/fpu/fpv5-d16\libc.a(lib_a-malloc.o)
 .text.free     0x00000000       0x10 c:/users/yaxing.chen/downloads/env_released_1.2.0/env/tools/gnu_gcc/arm_gcc/mingw/bin/../lib/gcc/arm-none-eabi/5.4.1/../../../../arm-none-eabi/lib/armv7e-m/fpu/fpv5-d16\libc.a(lib_a-malloc.o)
 .debug_frame   0x00000000       0x30 c:/users/yaxing.chen/downloads/env_released_1.2.0/env/tools/gnu_gcc/arm_gcc/mingw/bin/../lib/gcc/arm-none-eabi/5.4.1/../../../../arm-none-eabi/lib/armv7e-m/fpu/fpv5-d16\libc.a(lib_a-malloc.o)
 .ARM.attributes
                0x00000000       0x32 c:/users/yaxing.chen/downloads/env_released_1.2.0/env/tools/gnu_gcc/arm_gcc/mingw/bin/../lib/gcc/arm-none-eabi/5.4.1/../../../../arm-none-eabi/lib/armv7e-m/fpu/fpv5-d16\libc.a(lib_a-malloc.o)
 .text          0x00000000        0x0 c:/users/yaxing.chen/downloads/env_released_1.2.0/env/tools/gnu_gcc/arm_gcc/mingw/bin/../lib/gcc/arm-none-eabi/5.4.1/../../../../arm-none-eabi/lib/armv7e-m/fpu/fpv5-d16\libc.a(lib_a-memcmp.o)
 .data          0x00000000        0x0 c:/users/yaxing.chen/downloads/env_released_1.2.0/env/tools/gnu_gcc/arm_gcc/mingw/bin/../lib/gcc/arm-none-eabi/5.4.1/../../../../arm-none-eabi/lib/armv7e-m/fpu/fpv5-d16\libc.a(lib_a-memcmp.o)
 .bss           0x00000000        0x0 c:/users/yaxing.chen/downloads/env_released_1.2.0/env/tools/gnu_gcc/arm_gcc/mingw/bin/../lib/gcc/arm-none-eabi/5.4.1/../../../../arm-none-eabi/lib/armv7e-m/fpu/fpv5-d16\libc.a(lib_a-memcmp.o)
 .data          0x00000000        0x0 c:/users/yaxing.chen/downloads/env_released_1.2.0/env/tools/gnu_gcc/arm_gcc/mingw/bin/../lib/gcc/arm-none-eabi/5.4.1/../../../../arm-none-eabi/lib/armv7e-m/fpu/fpv5-d16\libc.a(lib_a-memcpy.o)
 .bss           0x00000000        0x0 c:/users/yaxing.chen/downloads/env_released_1.2.0/env/tools/gnu_gcc/arm_gcc/mingw/bin/../lib/gcc/arm-none-eabi/5.4.1/../../../../arm-none-eabi/lib/armv7e-m/fpu/fpv5-d16\libc.a(lib_a-memcpy.o)
 .text          0x00000000        0x0 c:/users/yaxing.chen/downloads/env_released_1.2.0/env/tools/gnu_gcc/arm_gcc/mingw/bin/../lib/gcc/arm-none-eabi/5.4.1/../../../../arm-none-eabi/lib/armv7e-m/fpu/fpv5-d16\libc.a(lib_a-memset.o)
 .data          0x00000000        0x0 c:/users/yaxing.chen/downloads/env_released_1.2.0/env/tools/gnu_gcc/arm_gcc/mingw/bin/../lib/gcc/arm-none-eabi/5.4.1/../../../../arm-none-eabi/lib/armv7e-m/fpu/fpv5-d16\libc.a(lib_a-memset.o)
 .bss           0x00000000        0x0 c:/users/yaxing.chen/downloads/env_released_1.2.0/env/tools/gnu_gcc/arm_gcc/mingw/bin/../lib/gcc/arm-none-eabi/5.4.1/../../../../arm-none-eabi/lib/armv7e-m/fpu/fpv5-d16\libc.a(lib_a-memset.o)
 .text          0x00000000        0x0 c:/users/yaxing.chen/downloads/env_released_1.2.0/env/tools/gnu_gcc/arm_gcc/mingw/bin/../lib/gcc/arm-none-eabi/5.4.1/../../../../arm-none-eabi/lib/armv7e-m/fpu/fpv5-d16\libc.a(lib_a-refill.o)
 .data          0x00000000        0x0 c:/users/yaxing.chen/downloads/env_released_1.2.0/env/tools/gnu_gcc/arm_gcc/mingw/bin/../lib/gcc/arm-none-eabi/5.4.1/../../../../arm-none-eabi/lib/armv7e-m/fpu/fpv5-d16\libc.a(lib_a-refill.o)
 .bss           0x00000000        0x0 c:/users/yaxing.chen/downloads/env_released_1.2.0/env/tools/gnu_gcc/arm_gcc/mingw/bin/../lib/gcc/arm-none-eabi/5.4.1/../../../../arm-none-eabi/lib/armv7e-m/fpu/fpv5-d16\libc.a(lib_a-refill.o)
 .text.lflush   0x00000000       0x14 c:/users/yaxing.chen/downloads/env_released_1.2.0/env/tools/gnu_gcc/arm_gcc/mingw/bin/../lib/gcc/arm-none-eabi/5.4.1/../../../../arm-none-eabi/lib/armv7e-m/fpu/fpv5-d16\libc.a(lib_a-refill.o)
 .text.__srefill_r
                0x00000000      0x114 c:/users/yaxing.chen/downloads/env_released_1.2.0/env/tools/gnu_gcc/arm_gcc/mingw/bin/../lib/gcc/arm-none-eabi/5.4.1/../../../../arm-none-eabi/lib/armv7e-m/fpu/fpv5-d16\libc.a(lib_a-refill.o)
 .debug_frame   0x00000000       0x40 c:/users/yaxing.chen/downloads/env_released_1.2.0/env/tools/gnu_gcc/arm_gcc/mingw/bin/../lib/gcc/arm-none-eabi/5.4.1/../../../../arm-none-eabi/lib/armv7e-m/fpu/fpv5-d16\libc.a(lib_a-refill.o)
 .ARM.attributes
                0x00000000       0x32 c:/users/yaxing.chen/downloads/env_released_1.2.0/env/tools/gnu_gcc/arm_gcc/mingw/bin/../lib/gcc/arm-none-eabi/5.4.1/../../../../arm-none-eabi/lib/armv7e-m/fpu/fpv5-d16\libc.a(lib_a-refill.o)
 .text          0x00000000        0x0 c:/users/yaxing.chen/downloads/env_released_1.2.0/env/tools/gnu_gcc/arm_gcc/mingw/bin/../lib/gcc/arm-none-eabi/5.4.1/../../../../arm-none-eabi/lib/armv7e-m/fpu/fpv5-d16\libc.a(lib_a-setvbuf.o)
 .data          0x00000000        0x0 c:/users/yaxing.chen/downloads/env_released_1.2.0/env/tools/gnu_gcc/arm_gcc/mingw/bin/../lib/gcc/arm-none-eabi/5.4.1/../../../../arm-none-eabi/lib/armv7e-m/fpu/fpv5-d16\libc.a(lib_a-setvbuf.o)
 .bss           0x00000000        0x0 c:/users/yaxing.chen/downloads/env_released_1.2.0/env/tools/gnu_gcc/arm_gcc/mingw/bin/../lib/gcc/arm-none-eabi/5.4.1/../../../../arm-none-eabi/lib/armv7e-m/fpu/fpv5-d16\libc.a(lib_a-setvbuf.o)
 .text.setvbuf  0x00000000      0x150 c:/users/yaxing.chen/downloads/env_released_1.2.0/env/tools/gnu_gcc/arm_gcc/mingw/bin/../lib/gcc/arm-none-eabi/5.4.1/../../../../arm-none-eabi/lib/armv7e-m/fpu/fpv5-d16\libc.a(lib_a-setvbuf.o)
 .debug_frame   0x00000000       0x50 c:/users/yaxing.chen/downloads/env_released_1.2.0/env/tools/gnu_gcc/arm_gcc/mingw/bin/../lib/gcc/arm-none-eabi/5.4.1/../../../../arm-none-eabi/lib/armv7e-m/fpu/fpv5-d16\libc.a(lib_a-setvbuf.o)
 .ARM.attributes
                0x00000000       0x32 c:/users/yaxing.chen/downloads/env_released_1.2.0/env/tools/gnu_gcc/arm_gcc/mingw/bin/../lib/gcc/arm-none-eabi/5.4.1/../../../../arm-none-eabi/lib/armv7e-m/fpu/fpv5-d16\libc.a(lib_a-setvbuf.o)
 .text          0x00000000        0x0 c:/users/yaxing.chen/downloads/env_released_1.2.0/env/tools/gnu_gcc/arm_gcc/mingw/bin/../lib/gcc/arm-none-eabi/5.4.1/../../../../arm-none-eabi/lib/armv7e-m/fpu/fpv5-d16\libc.a(lib_a-snprintf.o)
 .data          0x00000000        0x0 c:/users/yaxing.chen/downloads/env_released_1.2.0/env/tools/gnu_gcc/arm_gcc/mingw/bin/../lib/gcc/arm-none-eabi/5.4.1/../../../../arm-none-eabi/lib/armv7e-m/fpu/fpv5-d16\libc.a(lib_a-snprintf.o)
 .bss           0x00000000        0x0 c:/users/yaxing.chen/downloads/env_released_1.2.0/env/tools/gnu_gcc/arm_gcc/mingw/bin/../lib/gcc/arm-none-eabi/5.4.1/../../../../arm-none-eabi/lib/armv7e-m/fpu/fpv5-d16\libc.a(lib_a-snprintf.o)
 .text._snprintf_r
                0x00000000       0x90 c:/users/yaxing.chen/downloads/env_released_1.2.0/env/tools/gnu_gcc/arm_gcc/mingw/bin/../lib/gcc/arm-none-eabi/5.4.1/../../../../arm-none-eabi/lib/armv7e-m/fpu/fpv5-d16\libc.a(lib_a-snprintf.o)
 .text.snprintf
                0x00000000       0x9c c:/users/yaxing.chen/downloads/env_released_1.2.0/env/tools/gnu_gcc/arm_gcc/mingw/bin/../lib/gcc/arm-none-eabi/5.4.1/../../../../arm-none-eabi/lib/armv7e-m/fpu/fpv5-d16\libc.a(lib_a-snprintf.o)
 .debug_frame   0x00000000       0xd0 c:/users/yaxing.chen/downloads/env_released_1.2.0/env/tools/gnu_gcc/arm_gcc/mingw/bin/../lib/gcc/arm-none-eabi/5.4.1/../../../../arm-none-eabi/lib/armv7e-m/fpu/fpv5-d16\libc.a(lib_a-snprintf.o)
 .ARM.attributes
                0x00000000       0x32 c:/users/yaxing.chen/downloads/env_released_1.2.0/env/tools/gnu_gcc/arm_gcc/mingw/bin/../lib/gcc/arm-none-eabi/5.4.1/../../../../arm-none-eabi/lib/armv7e-m/fpu/fpv5-d16\libc.a(lib_a-snprintf.o)
 .text          0x00000000        0x0 c:/users/yaxing.chen/downloads/env_released_1.2.0/env/tools/gnu_gcc/arm_gcc/mingw/bin/../lib/gcc/arm-none-eabi/5.4.1/../../../../arm-none-eabi/lib/armv7e-m/fpu/fpv5-d16\libc.a(lib_a-stdio.o)
 .data          0x00000000        0x0 c:/users/yaxing.chen/downloads/env_released_1.2.0/env/tools/gnu_gcc/arm_gcc/mingw/bin/../lib/gcc/arm-none-eabi/5.4.1/../../../../arm-none-eabi/lib/armv7e-m/fpu/fpv5-d16\libc.a(lib_a-stdio.o)
 .bss           0x00000000        0x0 c:/users/yaxing.chen/downloads/env_released_1.2.0/env/tools/gnu_gcc/arm_gcc/mingw/bin/../lib/gcc/arm-none-eabi/5.4.1/../../../../arm-none-eabi/lib/armv7e-m/fpu/fpv5-d16\libc.a(lib_a-stdio.o)
 .text.__seofread
                0x00000000        0x4 c:/users/yaxing.chen/downloads/env_released_1.2.0/env/tools/gnu_gcc/arm_gcc/mingw/bin/../lib/gcc/arm-none-eabi/5.4.1/../../../../arm-none-eabi/lib/armv7e-m/fpu/fpv5-d16\libc.a(lib_a-stdio.o)
 .text          0x00000000        0x0 c:/users/yaxing.chen/downloads/env_released_1.2.0/env/tools/gnu_gcc/arm_gcc/mingw/bin/../lib/gcc/arm-none-eabi/5.4.1/../../../../arm-none-eabi/lib/armv7e-m/fpu/fpv5-d16\libc.a(lib_a-strcat.o)
 .data          0x00000000        0x0 c:/users/yaxing.chen/downloads/env_released_1.2.0/env/tools/gnu_gcc/arm_gcc/mingw/bin/../lib/gcc/arm-none-eabi/5.4.1/../../../../arm-none-eabi/lib/armv7e-m/fpu/fpv5-d16\libc.a(lib_a-strcat.o)
 .bss           0x00000000        0x0 c:/users/yaxing.chen/downloads/env_released_1.2.0/env/tools/gnu_gcc/arm_gcc/mingw/bin/../lib/gcc/arm-none-eabi/5.4.1/../../../../arm-none-eabi/lib/armv7e-m/fpu/fpv5-d16\libc.a(lib_a-strcat.o)
 .text          0x00000000        0x0 c:/users/yaxing.chen/downloads/env_released_1.2.0/env/tools/gnu_gcc/arm_gcc/mingw/bin/../lib/gcc/arm-none-eabi/5.4.1/../../../../arm-none-eabi/lib/armv7e-m/fpu/fpv5-d16\libc.a(lib_a-strcpy.o)
 .data          0x00000000        0x0 c:/users/yaxing.chen/downloads/env_released_1.2.0/env/tools/gnu_gcc/arm_gcc/mingw/bin/../lib/gcc/arm-none-eabi/5.4.1/../../../../arm-none-eabi/lib/armv7e-m/fpu/fpv5-d16\libc.a(lib_a-strcpy.o)
 .bss           0x00000000        0x0 c:/users/yaxing.chen/downloads/env_released_1.2.0/env/tools/gnu_gcc/arm_gcc/mingw/bin/../lib/gcc/arm-none-eabi/5.4.1/../../../../arm-none-eabi/lib/armv7e-m/fpu/fpv5-d16\libc.a(lib_a-strcpy.o)
 .data          0x00000000        0x0 c:/users/yaxing.chen/downloads/env_released_1.2.0/env/tools/gnu_gcc/arm_gcc/mingw/bin/../lib/gcc/arm-none-eabi/5.4.1/../../../../arm-none-eabi/lib/armv7e-m/fpu/fpv5-d16\libc.a(lib_a-strlen.o)
 .bss           0x00000000        0x0 c:/users/yaxing.chen/downloads/env_released_1.2.0/env/tools/gnu_gcc/arm_gcc/mingw/bin/../lib/gcc/arm-none-eabi/5.4.1/../../../../arm-none-eabi/lib/armv7e-m/fpu/fpv5-d16\libc.a(lib_a-strlen.o)
 .text          0x00000000        0x0 c:/users/yaxing.chen/downloads/env_released_1.2.0/env/tools/gnu_gcc/arm_gcc/mingw/bin/../lib/gcc/arm-none-eabi/5.4.1/../../../../arm-none-eabi/lib/armv7e-m/fpu/fpv5-d16\libc.a(lib_a-strncmp.o)
 .data          0x00000000        0x0 c:/users/yaxing.chen/downloads/env_released_1.2.0/env/tools/gnu_gcc/arm_gcc/mingw/bin/../lib/gcc/arm-none-eabi/5.4.1/../../../../arm-none-eabi/lib/armv7e-m/fpu/fpv5-d16\libc.a(lib_a-strncmp.o)
 .bss           0x00000000        0x0 c:/users/yaxing.chen/downloads/env_released_1.2.0/env/tools/gnu_gcc/arm_gcc/mingw/bin/../lib/gcc/arm-none-eabi/5.4.1/../../../../arm-none-eabi/lib/armv7e-m/fpu/fpv5-d16\libc.a(lib_a-strncmp.o)
 .text          0x00000000        0x0 c:/users/yaxing.chen/downloads/env_released_1.2.0/env/tools/gnu_gcc/arm_gcc/mingw/bin/../lib/gcc/arm-none-eabi/5.4.1/../../../../arm-none-eabi/lib/armv7e-m/fpu/fpv5-d16\libc.a(lib_a-strncpy.o)
 .data          0x00000000        0x0 c:/users/yaxing.chen/downloads/env_released_1.2.0/env/tools/gnu_gcc/arm_gcc/mingw/bin/../lib/gcc/arm-none-eabi/5.4.1/../../../../arm-none-eabi/lib/armv7e-m/fpu/fpv5-d16\libc.a(lib_a-strncpy.o)
 .bss           0x00000000        0x0 c:/users/yaxing.chen/downloads/env_released_1.2.0/env/tools/gnu_gcc/arm_gcc/mingw/bin/../lib/gcc/arm-none-eabi/5.4.1/../../../../arm-none-eabi/lib/armv7e-m/fpu/fpv5-d16\libc.a(lib_a-strncpy.o)
 .text          0x00000000        0x0 c:/users/yaxing.chen/downloads/env_released_1.2.0/env/tools/gnu_gcc/arm_gcc/mingw/bin/../lib/gcc/arm-none-eabi/5.4.1/../../../../arm-none-eabi/lib/armv7e-m/fpu/fpv5-d16\libc.a(lib_a-svfprintf.o)
 .data          0x00000000        0x0 c:/users/yaxing.chen/downloads/env_released_1.2.0/env/tools/gnu_gcc/arm_gcc/mingw/bin/../lib/gcc/arm-none-eabi/5.4.1/../../../../arm-none-eabi/lib/armv7e-m/fpu/fpv5-d16\libc.a(lib_a-svfprintf.o)
 .bss           0x00000000        0x0 c:/users/yaxing.chen/downloads/env_released_1.2.0/env/tools/gnu_gcc/arm_gcc/mingw/bin/../lib/gcc/arm-none-eabi/5.4.1/../../../../arm-none-eabi/lib/armv7e-m/fpu/fpv5-d16\libc.a(lib_a-svfprintf.o)
 .text._svfprintf_r
                0x00000000     0x1570 c:/users/yaxing.chen/downloads/env_released_1.2.0/env/tools/gnu_gcc/arm_gcc/mingw/bin/../lib/gcc/arm-none-eabi/5.4.1/../../../../arm-none-eabi/lib/armv7e-m/fpu/fpv5-d16\libc.a(lib_a-svfprintf.o)
 .rodata.zeroes.7258
                0x00000000       0x10 c:/users/yaxing.chen/downloads/env_released_1.2.0/env/tools/gnu_gcc/arm_gcc/mingw/bin/../lib/gcc/arm-none-eabi/5.4.1/../../../../arm-none-eabi/lib/armv7e-m/fpu/fpv5-d16\libc.a(lib_a-svfprintf.o)
 .rodata.str1.4
                0x00000000       0x42 c:/users/yaxing.chen/downloads/env_released_1.2.0/env/tools/gnu_gcc/arm_gcc/mingw/bin/../lib/gcc/arm-none-eabi/5.4.1/../../../../arm-none-eabi/lib/armv7e-m/fpu/fpv5-d16\libc.a(lib_a-svfprintf.o)
 .rodata.blanks.7257
                0x00000000       0x10 c:/users/yaxing.chen/downloads/env_released_1.2.0/env/tools/gnu_gcc/arm_gcc/mingw/bin/../lib/gcc/arm-none-eabi/5.4.1/../../../../arm-none-eabi/lib/armv7e-m/fpu/fpv5-d16\libc.a(lib_a-svfprintf.o)
 .debug_frame   0x00000000       0x64 c:/users/yaxing.chen/downloads/env_released_1.2.0/env/tools/gnu_gcc/arm_gcc/mingw/bin/../lib/gcc/arm-none-eabi/5.4.1/../../../../arm-none-eabi/lib/armv7e-m/fpu/fpv5-d16\libc.a(lib_a-svfprintf.o)
 .ARM.attributes
                0x00000000       0x32 c:/users/yaxing.chen/downloads/env_released_1.2.0/env/tools/gnu_gcc/arm_gcc/mingw/bin/../lib/gcc/arm-none-eabi/5.4.1/../../../../arm-none-eabi/lib/armv7e-m/fpu/fpv5-d16\libc.a(lib_a-svfprintf.o)
 .text          0x00000000        0x0 c:/users/yaxing.chen/downloads/env_released_1.2.0/env/tools/gnu_gcc/arm_gcc/mingw/bin/../lib/gcc/arm-none-eabi/5.4.1/../../../../arm-none-eabi/lib/armv7e-m/fpu/fpv5-d16\libc.a(lib_a-vfiprintf.o)
 .data          0x00000000        0x0 c:/users/yaxing.chen/downloads/env_released_1.2.0/env/tools/gnu_gcc/arm_gcc/mingw/bin/../lib/gcc/arm-none-eabi/5.4.1/../../../../arm-none-eabi/lib/armv7e-m/fpu/fpv5-d16\libc.a(lib_a-vfiprintf.o)
 .bss           0x00000000        0x0 c:/users/yaxing.chen/downloads/env_released_1.2.0/env/tools/gnu_gcc/arm_gcc/mingw/bin/../lib/gcc/arm-none-eabi/5.4.1/../../../../arm-none-eabi/lib/armv7e-m/fpu/fpv5-d16\libc.a(lib_a-vfiprintf.o)
 .text.__sprint_r
                0x00000000       0x14 c:/users/yaxing.chen/downloads/env_released_1.2.0/env/tools/gnu_gcc/arm_gcc/mingw/bin/../lib/gcc/arm-none-eabi/5.4.1/../../../../arm-none-eabi/lib/armv7e-m/fpu/fpv5-d16\libc.a(lib_a-vfiprintf.o)
 .text.vfiprintf
                0x00000000       0x18 c:/users/yaxing.chen/downloads/env_released_1.2.0/env/tools/gnu_gcc/arm_gcc/mingw/bin/../lib/gcc/arm-none-eabi/5.4.1/../../../../arm-none-eabi/lib/armv7e-m/fpu/fpv5-d16\libc.a(lib_a-vfiprintf.o)
 .text          0x00000000        0x0 c:/users/yaxing.chen/downloads/env_released_1.2.0/env/tools/gnu_gcc/arm_gcc/mingw/bin/../lib/gcc/arm-none-eabi/5.4.1/../../../../arm-none-eabi/lib/armv7e-m/fpu/fpv5-d16\libc.a(lib_a-wsetup.o)
 .data          0x00000000        0x0 c:/users/yaxing.chen/downloads/env_released_1.2.0/env/tools/gnu_gcc/arm_gcc/mingw/bin/../lib/gcc/arm-none-eabi/5.4.1/../../../../arm-none-eabi/lib/armv7e-m/fpu/fpv5-d16\libc.a(lib_a-wsetup.o)
 .bss           0x00000000        0x0 c:/users/yaxing.chen/downloads/env_released_1.2.0/env/tools/gnu_gcc/arm_gcc/mingw/bin/../lib/gcc/arm-none-eabi/5.4.1/../../../../arm-none-eabi/lib/armv7e-m/fpu/fpv5-d16\libc.a(lib_a-wsetup.o)
 .text          0x00000000        0x0 c:/users/yaxing.chen/downloads/env_released_1.2.0/env/tools/gnu_gcc/arm_gcc/mingw/bin/../lib/gcc/arm-none-eabi/5.4.1/../../../../arm-none-eabi/lib/armv7e-m/fpu/fpv5-d16\libc.a(lib_a-dtoa.o)
 .data          0x00000000        0x0 c:/users/yaxing.chen/downloads/env_released_1.2.0/env/tools/gnu_gcc/arm_gcc/mingw/bin/../lib/gcc/arm-none-eabi/5.4.1/../../../../arm-none-eabi/lib/armv7e-m/fpu/fpv5-d16\libc.a(lib_a-dtoa.o)
 .bss           0x00000000        0x0 c:/users/yaxing.chen/downloads/env_released_1.2.0/env/tools/gnu_gcc/arm_gcc/mingw/bin/../lib/gcc/arm-none-eabi/5.4.1/../../../../arm-none-eabi/lib/armv7e-m/fpu/fpv5-d16\libc.a(lib_a-dtoa.o)
 .text.quorem   0x00000000      0x128 c:/users/yaxing.chen/downloads/env_released_1.2.0/env/tools/gnu_gcc/arm_gcc/mingw/bin/../lib/gcc/arm-none-eabi/5.4.1/../../../../arm-none-eabi/lib/armv7e-m/fpu/fpv5-d16\libc.a(lib_a-dtoa.o)
 .text._dtoa_r  0x00000000      0xc84 c:/users/yaxing.chen/downloads/env_released_1.2.0/env/tools/gnu_gcc/arm_gcc/mingw/bin/../lib/gcc/arm-none-eabi/5.4.1/../../../../arm-none-eabi/lib/armv7e-m/fpu/fpv5-d16\libc.a(lib_a-dtoa.o)
 .rodata.str1.4
                0x00000000       0x12 c:/users/yaxing.chen/downloads/env_released_1.2.0/env/tools/gnu_gcc/arm_gcc/mingw/bin/../lib/gcc/arm-none-eabi/5.4.1/../../../../arm-none-eabi/lib/armv7e-m/fpu/fpv5-d16\libc.a(lib_a-dtoa.o)
 .debug_frame   0x00000000       0x84 c:/users/yaxing.chen/downloads/env_released_1.2.0/env/tools/gnu_gcc/arm_gcc/mingw/bin/../lib/gcc/arm-none-eabi/5.4.1/../../../../arm-none-eabi/lib/armv7e-m/fpu/fpv5-d16\libc.a(lib_a-dtoa.o)
 .ARM.attributes
                0x00000000       0x32 c:/users/yaxing.chen/downloads/env_released_1.2.0/env/tools/gnu_gcc/arm_gcc/mingw/bin/../lib/gcc/arm-none-eabi/5.4.1/../../../../arm-none-eabi/lib/armv7e-m/fpu/fpv5-d16\libc.a(lib_a-dtoa.o)
 .text          0x00000000        0x0 c:/users/yaxing.chen/downloads/env_released_1.2.0/env/tools/gnu_gcc/arm_gcc/mingw/bin/../lib/gcc/arm-none-eabi/5.4.1/../../../../arm-none-eabi/lib/armv7e-m/fpu/fpv5-d16\libc.a(lib_a-flags.o)
 .data          0x00000000        0x0 c:/users/yaxing.chen/downloads/env_released_1.2.0/env/tools/gnu_gcc/arm_gcc/mingw/bin/../lib/gcc/arm-none-eabi/5.4.1/../../../../arm-none-eabi/lib/armv7e-m/fpu/fpv5-d16\libc.a(lib_a-flags.o)
 .bss           0x00000000        0x0 c:/users/yaxing.chen/downloads/env_released_1.2.0/env/tools/gnu_gcc/arm_gcc/mingw/bin/../lib/gcc/arm-none-eabi/5.4.1/../../../../arm-none-eabi/lib/armv7e-m/fpu/fpv5-d16\libc.a(lib_a-flags.o)
 .text.__sflags
                0x00000000       0x74 c:/users/yaxing.chen/downloads/env_released_1.2.0/env/tools/gnu_gcc/arm_gcc/mingw/bin/../lib/gcc/arm-none-eabi/5.4.1/../../../../arm-none-eabi/lib/armv7e-m/fpu/fpv5-d16\libc.a(lib_a-flags.o)
 .debug_frame   0x00000000       0x38 c:/users/yaxing.chen/downloads/env_released_1.2.0/env/tools/gnu_gcc/arm_gcc/mingw/bin/../lib/gcc/arm-none-eabi/5.4.1/../../../../arm-none-eabi/lib/armv7e-m/fpu/fpv5-d16\libc.a(lib_a-flags.o)
 .ARM.attributes
                0x00000000       0x32 c:/users/yaxing.chen/downloads/env_released_1.2.0/env/tools/gnu_gcc/arm_gcc/mingw/bin/../lib/gcc/arm-none-eabi/5.4.1/../../../../arm-none-eabi/lib/armv7e-m/fpu/fpv5-d16\libc.a(lib_a-flags.o)
 .text          0x00000000        0x0 c:/users/yaxing.chen/downloads/env_released_1.2.0/env/tools/gnu_gcc/arm_gcc/mingw/bin/../lib/gcc/arm-none-eabi/5.4.1/../../../../arm-none-eabi/lib/armv7e-m/fpu/fpv5-d16\libc.a(lib_a-fputwc.o)
 .data          0x00000000        0x0 c:/users/yaxing.chen/downloads/env_released_1.2.0/env/tools/gnu_gcc/arm_gcc/mingw/bin/../lib/gcc/arm-none-eabi/5.4.1/../../../../arm-none-eabi/lib/armv7e-m/fpu/fpv5-d16\libc.a(lib_a-fputwc.o)
 .bss           0x00000000        0x0 c:/users/yaxing.chen/downloads/env_released_1.2.0/env/tools/gnu_gcc/arm_gcc/mingw/bin/../lib/gcc/arm-none-eabi/5.4.1/../../../../arm-none-eabi/lib/armv7e-m/fpu/fpv5-d16\libc.a(lib_a-fputwc.o)
 .text.fputwc   0x00000000       0x40 c:/users/yaxing.chen/downloads/env_released_1.2.0/env/tools/gnu_gcc/arm_gcc/mingw/bin/../lib/gcc/arm-none-eabi/5.4.1/../../../../arm-none-eabi/lib/armv7e-m/fpu/fpv5-d16\libc.a(lib_a-fputwc.o)
 .text          0x00000000        0x0 c:/users/yaxing.chen/downloads/env_released_1.2.0/env/tools/gnu_gcc/arm_gcc/mingw/bin/../lib/gcc/arm-none-eabi/5.4.1/../../../../arm-none-eabi/lib/armv7e-m/fpu/fpv5-d16\libc.a(lib_a-fvwrite.o)
 .data          0x00000000        0x0 c:/users/yaxing.chen/downloads/env_released_1.2.0/env/tools/gnu_gcc/arm_gcc/mingw/bin/../lib/gcc/arm-none-eabi/5.4.1/../../../../arm-none-eabi/lib/armv7e-m/fpu/fpv5-d16\libc.a(lib_a-fvwrite.o)
 .bss           0x00000000        0x0 c:/users/yaxing.chen/downloads/env_released_1.2.0/env/tools/gnu_gcc/arm_gcc/mingw/bin/../lib/gcc/arm-none-eabi/5.4.1/../../../../arm-none-eabi/lib/armv7e-m/fpu/fpv5-d16\libc.a(lib_a-fvwrite.o)
 .text          0x00000000        0x0 c:/users/yaxing.chen/downloads/env_released_1.2.0/env/tools/gnu_gcc/arm_gcc/mingw/bin/../lib/gcc/arm-none-eabi/5.4.1/../../../../arm-none-eabi/lib/armv7e-m/fpu/fpv5-d16\libc.a(lib_a-locale.o)
 .data          0x00000000        0x0 c:/users/yaxing.chen/downloads/env_released_1.2.0/env/tools/gnu_gcc/arm_gcc/mingw/bin/../lib/gcc/arm-none-eabi/5.4.1/../../../../arm-none-eabi/lib/armv7e-m/fpu/fpv5-d16\libc.a(lib_a-locale.o)
 .bss           0x00000000        0x0 c:/users/yaxing.chen/downloads/env_released_1.2.0/env/tools/gnu_gcc/arm_gcc/mingw/bin/../lib/gcc/arm-none-eabi/5.4.1/../../../../arm-none-eabi/lib/armv7e-m/fpu/fpv5-d16\libc.a(lib_a-locale.o)
 .text.__get_current_locale
                0x00000000       0x18 c:/users/yaxing.chen/downloads/env_released_1.2.0/env/tools/gnu_gcc/arm_gcc/mingw/bin/../lib/gcc/arm-none-eabi/5.4.1/../../../../arm-none-eabi/lib/armv7e-m/fpu/fpv5-d16\libc.a(lib_a-locale.o)
 .text._setlocale_r
                0x00000000       0x40 c:/users/yaxing.chen/downloads/env_released_1.2.0/env/tools/gnu_gcc/arm_gcc/mingw/bin/../lib/gcc/arm-none-eabi/5.4.1/../../../../arm-none-eabi/lib/armv7e-m/fpu/fpv5-d16\libc.a(lib_a-locale.o)
 .text.__locale_ctype_ptr_l
                0x00000000        0x8 c:/users/yaxing.chen/downloads/env_released_1.2.0/env/tools/gnu_gcc/arm_gcc/mingw/bin/../lib/gcc/arm-none-eabi/5.4.1/../../../../arm-none-eabi/lib/armv7e-m/fpu/fpv5-d16\libc.a(lib_a-locale.o)
 .text.__locale_ctype_ptr
                0x00000000       0x14 c:/users/yaxing.chen/downloads/env_released_1.2.0/env/tools/gnu_gcc/arm_gcc/mingw/bin/../lib/gcc/arm-none-eabi/5.4.1/../../../../arm-none-eabi/lib/armv7e-m/fpu/fpv5-d16\libc.a(lib_a-locale.o)
 .text.setlocale
                0x00000000       0x10 c:/users/yaxing.chen/downloads/env_released_1.2.0/env/tools/gnu_gcc/arm_gcc/mingw/bin/../lib/gcc/arm-none-eabi/5.4.1/../../../../arm-none-eabi/lib/armv7e-m/fpu/fpv5-d16\libc.a(lib_a-locale.o)
 .bss._PathLocale
                0x00000000        0x4 c:/users/yaxing.chen/downloads/env_released_1.2.0/env/tools/gnu_gcc/arm_gcc/mingw/bin/../lib/gcc/arm-none-eabi/5.4.1/../../../../arm-none-eabi/lib/armv7e-m/fpu/fpv5-d16\libc.a(lib_a-locale.o)
 .text          0x00000000        0x0 c:/users/yaxing.chen/downloads/env_released_1.2.0/env/tools/gnu_gcc/arm_gcc/mingw/bin/../lib/gcc/arm-none-eabi/5.4.1/../../../../arm-none-eabi/lib/armv7e-m/fpu/fpv5-d16\libc.a(lib_a-localeconv.o)
 .data          0x00000000        0x0 c:/users/yaxing.chen/downloads/env_released_1.2.0/env/tools/gnu_gcc/arm_gcc/mingw/bin/../lib/gcc/arm-none-eabi/5.4.1/../../../../arm-none-eabi/lib/armv7e-m/fpu/fpv5-d16\libc.a(lib_a-localeconv.o)
 .bss           0x00000000        0x0 c:/users/yaxing.chen/downloads/env_released_1.2.0/env/tools/gnu_gcc/arm_gcc/mingw/bin/../lib/gcc/arm-none-eabi/5.4.1/../../../../arm-none-eabi/lib/armv7e-m/fpu/fpv5-d16\libc.a(lib_a-localeconv.o)
 .text.__localeconv_l
                0x00000000        0x4 c:/users/yaxing.chen/downloads/env_released_1.2.0/env/tools/gnu_gcc/arm_gcc/mingw/bin/../lib/gcc/arm-none-eabi/5.4.1/../../../../arm-none-eabi/lib/armv7e-m/fpu/fpv5-d16\libc.a(lib_a-localeconv.o)
 .text._localeconv_r
                0x00000000       0x1c c:/users/yaxing.chen/downloads/env_released_1.2.0/env/tools/gnu_gcc/arm_gcc/mingw/bin/../lib/gcc/arm-none-eabi/5.4.1/../../../../arm-none-eabi/lib/armv7e-m/fpu/fpv5-d16\libc.a(lib_a-localeconv.o)
 .text.localeconv
                0x00000000       0x1c c:/users/yaxing.chen/downloads/env_released_1.2.0/env/tools/gnu_gcc/arm_gcc/mingw/bin/../lib/gcc/arm-none-eabi/5.4.1/../../../../arm-none-eabi/lib/armv7e-m/fpu/fpv5-d16\libc.a(lib_a-localeconv.o)
 .debug_frame   0x00000000       0x40 c:/users/yaxing.chen/downloads/env_released_1.2.0/env/tools/gnu_gcc/arm_gcc/mingw/bin/../lib/gcc/arm-none-eabi/5.4.1/../../../../arm-none-eabi/lib/armv7e-m/fpu/fpv5-d16\libc.a(lib_a-localeconv.o)
 .ARM.attributes
                0x00000000       0x32 c:/users/yaxing.chen/downloads/env_released_1.2.0/env/tools/gnu_gcc/arm_gcc/mingw/bin/../lib/gcc/arm-none-eabi/5.4.1/../../../../arm-none-eabi/lib/armv7e-m/fpu/fpv5-d16\libc.a(lib_a-localeconv.o)
 .text          0x00000000        0x0 c:/users/yaxing.chen/downloads/env_released_1.2.0/env/tools/gnu_gcc/arm_gcc/mingw/bin/../lib/gcc/arm-none-eabi/5.4.1/../../../../arm-none-eabi/lib/armv7e-m/fpu/fpv5-d16\libc.a(lib_a-mbtowc_r.o)
 .data          0x00000000        0x0 c:/users/yaxing.chen/downloads/env_released_1.2.0/env/tools/gnu_gcc/arm_gcc/mingw/bin/../lib/gcc/arm-none-eabi/5.4.1/../../../../arm-none-eabi/lib/armv7e-m/fpu/fpv5-d16\libc.a(lib_a-mbtowc_r.o)
 .bss           0x00000000        0x0 c:/users/yaxing.chen/downloads/env_released_1.2.0/env/tools/gnu_gcc/arm_gcc/mingw/bin/../lib/gcc/arm-none-eabi/5.4.1/../../../../arm-none-eabi/lib/armv7e-m/fpu/fpv5-d16\libc.a(lib_a-mbtowc_r.o)
 .text._mbtowc_r
                0x00000000       0x24 c:/users/yaxing.chen/downloads/env_released_1.2.0/env/tools/gnu_gcc/arm_gcc/mingw/bin/../lib/gcc/arm-none-eabi/5.4.1/../../../../arm-none-eabi/lib/armv7e-m/fpu/fpv5-d16\libc.a(lib_a-mbtowc_r.o)
 .data          0x00000000        0x0 c:/users/yaxing.chen/downloads/env_released_1.2.0/env/tools/gnu_gcc/arm_gcc/mingw/bin/../lib/gcc/arm-none-eabi/5.4.1/../../../../arm-none-eabi/lib/armv7e-m/fpu/fpv5-d16\libc.a(lib_a-memchr.o)
 .bss           0x00000000        0x0 c:/users/yaxing.chen/downloads/env_released_1.2.0/env/tools/gnu_gcc/arm_gcc/mingw/bin/../lib/gcc/arm-none-eabi/5.4.1/../../../../arm-none-eabi/lib/armv7e-m/fpu/fpv5-d16\libc.a(lib_a-memchr.o)
 .text          0x00000000        0x0 c:/users/yaxing.chen/downloads/env_released_1.2.0/env/tools/gnu_gcc/arm_gcc/mingw/bin/../lib/gcc/arm-none-eabi/5.4.1/../../../../arm-none-eabi/lib/armv7e-m/fpu/fpv5-d16\libc.a(lib_a-memmove.o)
 .data          0x00000000        0x0 c:/users/yaxing.chen/downloads/env_released_1.2.0/env/tools/gnu_gcc/arm_gcc/mingw/bin/../lib/gcc/arm-none-eabi/5.4.1/../../../../arm-none-eabi/lib/armv7e-m/fpu/fpv5-d16\libc.a(lib_a-memmove.o)
 .bss           0x00000000        0x0 c:/users/yaxing.chen/downloads/env_released_1.2.0/env/tools/gnu_gcc/arm_gcc/mingw/bin/../lib/gcc/arm-none-eabi/5.4.1/../../../../arm-none-eabi/lib/armv7e-m/fpu/fpv5-d16\libc.a(lib_a-memmove.o)
 .text          0x00000000        0x0 c:/users/yaxing.chen/downloads/env_released_1.2.0/env/tools/gnu_gcc/arm_gcc/mingw/bin/../lib/gcc/arm-none-eabi/5.4.1/../../../../arm-none-eabi/lib/armv7e-m/fpu/fpv5-d16\libc.a(lib_a-mprec.o)
 .data          0x00000000        0x0 c:/users/yaxing.chen/downloads/env_released_1.2.0/env/tools/gnu_gcc/arm_gcc/mingw/bin/../lib/gcc/arm-none-eabi/5.4.1/../../../../arm-none-eabi/lib/armv7e-m/fpu/fpv5-d16\libc.a(lib_a-mprec.o)
 .bss           0x00000000        0x0 c:/users/yaxing.chen/downloads/env_released_1.2.0/env/tools/gnu_gcc/arm_gcc/mingw/bin/../lib/gcc/arm-none-eabi/5.4.1/../../../../arm-none-eabi/lib/armv7e-m/fpu/fpv5-d16\libc.a(lib_a-mprec.o)
 .text._Balloc  0x00000000       0x4c c:/users/yaxing.chen/downloads/env_released_1.2.0/env/tools/gnu_gcc/arm_gcc/mingw/bin/../lib/gcc/arm-none-eabi/5.4.1/../../../../arm-none-eabi/lib/armv7e-m/fpu/fpv5-d16\libc.a(lib_a-mprec.o)
 .text._Bfree   0x00000000       0x14 c:/users/yaxing.chen/downloads/env_released_1.2.0/env/tools/gnu_gcc/arm_gcc/mingw/bin/../lib/gcc/arm-none-eabi/5.4.1/../../../../arm-none-eabi/lib/armv7e-m/fpu/fpv5-d16\libc.a(lib_a-mprec.o)
 .text.__multadd
                0x00000000       0x80 c:/users/yaxing.chen/downloads/env_released_1.2.0/env/tools/gnu_gcc/arm_gcc/mingw/bin/../lib/gcc/arm-none-eabi/5.4.1/../../../../arm-none-eabi/lib/armv7e-m/fpu/fpv5-d16\libc.a(lib_a-mprec.o)
 .text.__s2b    0x00000000       0x98 c:/users/yaxing.chen/downloads/env_released_1.2.0/env/tools/gnu_gcc/arm_gcc/mingw/bin/../lib/gcc/arm-none-eabi/5.4.1/../../../../arm-none-eabi/lib/armv7e-m/fpu/fpv5-d16\libc.a(lib_a-mprec.o)
 .text.__hi0bits
                0x00000000       0x40 c:/users/yaxing.chen/downloads/env_released_1.2.0/env/tools/gnu_gcc/arm_gcc/mingw/bin/../lib/gcc/arm-none-eabi/5.4.1/../../../../arm-none-eabi/lib/armv7e-m/fpu/fpv5-d16\libc.a(lib_a-mprec.o)
 .text.__lo0bits
                0x00000000       0x5c c:/users/yaxing.chen/downloads/env_released_1.2.0/env/tools/gnu_gcc/arm_gcc/mingw/bin/../lib/gcc/arm-none-eabi/5.4.1/../../../../arm-none-eabi/lib/armv7e-m/fpu/fpv5-d16\libc.a(lib_a-mprec.o)
 .text.__i2b    0x00000000       0x14 c:/users/yaxing.chen/downloads/env_released_1.2.0/env/tools/gnu_gcc/arm_gcc/mingw/bin/../lib/gcc/arm-none-eabi/5.4.1/../../../../arm-none-eabi/lib/armv7e-m/fpu/fpv5-d16\libc.a(lib_a-mprec.o)
 .text.__multiply
                0x00000000      0x130 c:/users/yaxing.chen/downloads/env_released_1.2.0/env/tools/gnu_gcc/arm_gcc/mingw/bin/../lib/gcc/arm-none-eabi/5.4.1/../../../../arm-none-eabi/lib/armv7e-m/fpu/fpv5-d16\libc.a(lib_a-mprec.o)
 .text.__pow5mult
                0x00000000       0xa0 c:/users/yaxing.chen/downloads/env_released_1.2.0/env/tools/gnu_gcc/arm_gcc/mingw/bin/../lib/gcc/arm-none-eabi/5.4.1/../../../../arm-none-eabi/lib/armv7e-m/fpu/fpv5-d16\libc.a(lib_a-mprec.o)
 .text.__lshift
                0x00000000       0xb0 c:/users/yaxing.chen/downloads/env_released_1.2.0/env/tools/gnu_gcc/arm_gcc/mingw/bin/../lib/gcc/arm-none-eabi/5.4.1/../../../../arm-none-eabi/lib/armv7e-m/fpu/fpv5-d16\libc.a(lib_a-mprec.o)
 .text.__mcmp   0x00000000       0x44 c:/users/yaxing.chen/downloads/env_released_1.2.0/env/tools/gnu_gcc/arm_gcc/mingw/bin/../lib/gcc/arm-none-eabi/5.4.1/../../../../arm-none-eabi/lib/armv7e-m/fpu/fpv5-d16\libc.a(lib_a-mprec.o)
 .text.__mdiff  0x00000000      0x114 c:/users/yaxing.chen/downloads/env_released_1.2.0/env/tools/gnu_gcc/arm_gcc/mingw/bin/../lib/gcc/arm-none-eabi/5.4.1/../../../../arm-none-eabi/lib/armv7e-m/fpu/fpv5-d16\libc.a(lib_a-mprec.o)
 .text.__ulp    0x00000000       0x54 c:/users/yaxing.chen/downloads/env_released_1.2.0/env/tools/gnu_gcc/arm_gcc/mingw/bin/../lib/gcc/arm-none-eabi/5.4.1/../../../../arm-none-eabi/lib/armv7e-m/fpu/fpv5-d16\libc.a(lib_a-mprec.o)
 .text.__b2d    0x00000000       0xd0 c:/users/yaxing.chen/downloads/env_released_1.2.0/env/tools/gnu_gcc/arm_gcc/mingw/bin/../lib/gcc/arm-none-eabi/5.4.1/../../../../arm-none-eabi/lib/armv7e-m/fpu/fpv5-d16\libc.a(lib_a-mprec.o)
 .text.__d2b    0x00000000       0xbc c:/users/yaxing.chen/downloads/env_released_1.2.0/env/tools/gnu_gcc/arm_gcc/mingw/bin/../lib/gcc/arm-none-eabi/5.4.1/../../../../arm-none-eabi/lib/armv7e-m/fpu/fpv5-d16\libc.a(lib_a-mprec.o)
 .text.__ratio  0x00000000       0x5c c:/users/yaxing.chen/downloads/env_released_1.2.0/env/tools/gnu_gcc/arm_gcc/mingw/bin/../lib/gcc/arm-none-eabi/5.4.1/../../../../arm-none-eabi/lib/armv7e-m/fpu/fpv5-d16\libc.a(lib_a-mprec.o)
 .text._mprec_log10
                0x00000000       0x28 c:/users/yaxing.chen/downloads/env_released_1.2.0/env/tools/gnu_gcc/arm_gcc/mingw/bin/../lib/gcc/arm-none-eabi/5.4.1/../../../../arm-none-eabi/lib/armv7e-m/fpu/fpv5-d16\libc.a(lib_a-mprec.o)
 .text.__copybits
                0x00000000       0x48 c:/users/yaxing.chen/downloads/env_released_1.2.0/env/tools/gnu_gcc/arm_gcc/mingw/bin/../lib/gcc/arm-none-eabi/5.4.1/../../../../arm-none-eabi/lib/armv7e-m/fpu/fpv5-d16\libc.a(lib_a-mprec.o)
 .text.__any_on
                0x00000000       0x60 c:/users/yaxing.chen/downloads/env_released_1.2.0/env/tools/gnu_gcc/arm_gcc/mingw/bin/../lib/gcc/arm-none-eabi/5.4.1/../../../../arm-none-eabi/lib/armv7e-m/fpu/fpv5-d16\libc.a(lib_a-mprec.o)
 .rodata.__mprec_tens
                0x00000000       0xc8 c:/users/yaxing.chen/downloads/env_released_1.2.0/env/tools/gnu_gcc/arm_gcc/mingw/bin/../lib/gcc/arm-none-eabi/5.4.1/../../../../arm-none-eabi/lib/armv7e-m/fpu/fpv5-d16\libc.a(lib_a-mprec.o)
 .rodata.__mprec_bigtens
                0x00000000       0x28 c:/users/yaxing.chen/downloads/env_released_1.2.0/env/tools/gnu_gcc/arm_gcc/mingw/bin/../lib/gcc/arm-none-eabi/5.4.1/../../../../arm-none-eabi/lib/armv7e-m/fpu/fpv5-d16\libc.a(lib_a-mprec.o)
 .rodata.p05.6087
                0x00000000        0xc c:/users/yaxing.chen/downloads/env_released_1.2.0/env/tools/gnu_gcc/arm_gcc/mingw/bin/../lib/gcc/arm-none-eabi/5.4.1/../../../../arm-none-eabi/lib/armv7e-m/fpu/fpv5-d16\libc.a(lib_a-mprec.o)
 .rodata.__mprec_tinytens
                0x00000000       0x28 c:/users/yaxing.chen/downloads/env_released_1.2.0/env/tools/gnu_gcc/arm_gcc/mingw/bin/../lib/gcc/arm-none-eabi/5.4.1/../../../../arm-none-eabi/lib/armv7e-m/fpu/fpv5-d16\libc.a(lib_a-mprec.o)
 .debug_frame   0x00000000      0x254 c:/users/yaxing.chen/downloads/env_released_1.2.0/env/tools/gnu_gcc/arm_gcc/mingw/bin/../lib/gcc/arm-none-eabi/5.4.1/../../../../arm-none-eabi/lib/armv7e-m/fpu/fpv5-d16\libc.a(lib_a-mprec.o)
 .ARM.attributes
                0x00000000       0x32 c:/users/yaxing.chen/downloads/env_released_1.2.0/env/tools/gnu_gcc/arm_gcc/mingw/bin/../lib/gcc/arm-none-eabi/5.4.1/../../../../arm-none-eabi/lib/armv7e-m/fpu/fpv5-d16\libc.a(lib_a-mprec.o)
 .text          0x00000000      0x2dc c:/users/yaxing.chen/downloads/env_released_1.2.0/env/tools/gnu_gcc/arm_gcc/mingw/bin/../lib/gcc/arm-none-eabi/5.4.1/../../../../arm-none-eabi/lib/armv7e-m/fpu/fpv5-d16\libc.a(lib_a-strcmp.o)
 .data          0x00000000        0x0 c:/users/yaxing.chen/downloads/env_released_1.2.0/env/tools/gnu_gcc/arm_gcc/mingw/bin/../lib/gcc/arm-none-eabi/5.4.1/../../../../arm-none-eabi/lib/armv7e-m/fpu/fpv5-d16\libc.a(lib_a-strcmp.o)
 .bss           0x00000000        0x0 c:/users/yaxing.chen/downloads/env_released_1.2.0/env/tools/gnu_gcc/arm_gcc/mingw/bin/../lib/gcc/arm-none-eabi/5.4.1/../../../../arm-none-eabi/lib/armv7e-m/fpu/fpv5-d16\libc.a(lib_a-strcmp.o)
 .debug_frame   0x00000000       0x68 c:/users/yaxing.chen/downloads/env_released_1.2.0/env/tools/gnu_gcc/arm_gcc/mingw/bin/../lib/gcc/arm-none-eabi/5.4.1/../../../../arm-none-eabi/lib/armv7e-m/fpu/fpv5-d16\libc.a(lib_a-strcmp.o)
 .ARM.attributes
                0x00000000       0x1e c:/users/yaxing.chen/downloads/env_released_1.2.0/env/tools/gnu_gcc/arm_gcc/mingw/bin/../lib/gcc/arm-none-eabi/5.4.1/../../../../arm-none-eabi/lib/armv7e-m/fpu/fpv5-d16\libc.a(lib_a-strcmp.o)
 .text          0x00000000        0x0 c:/users/yaxing.chen/downloads/env_released_1.2.0/env/tools/gnu_gcc/arm_gcc/mingw/bin/../lib/gcc/arm-none-eabi/5.4.1/../../../../arm-none-eabi/lib/armv7e-m/fpu/fpv5-d16\libc.a(lib_a-svfiprintf.o)
 .data          0x00000000        0x0 c:/users/yaxing.chen/downloads/env_released_1.2.0/env/tools/gnu_gcc/arm_gcc/mingw/bin/../lib/gcc/arm-none-eabi/5.4.1/../../../../arm-none-eabi/lib/armv7e-m/fpu/fpv5-d16\libc.a(lib_a-svfiprintf.o)
 .bss           0x00000000        0x0 c:/users/yaxing.chen/downloads/env_released_1.2.0/env/tools/gnu_gcc/arm_gcc/mingw/bin/../lib/gcc/arm-none-eabi/5.4.1/../../../../arm-none-eabi/lib/armv7e-m/fpu/fpv5-d16\libc.a(lib_a-svfiprintf.o)
 .text.__ssprint_r
                0x00000000      0x100 c:/users/yaxing.chen/downloads/env_released_1.2.0/env/tools/gnu_gcc/arm_gcc/mingw/bin/../lib/gcc/arm-none-eabi/5.4.1/../../../../arm-none-eabi/lib/armv7e-m/fpu/fpv5-d16\libc.a(lib_a-svfiprintf.o)
 .text._svfiprintf_r
                0x00000000      0xc5c c:/users/yaxing.chen/downloads/env_released_1.2.0/env/tools/gnu_gcc/arm_gcc/mingw/bin/../lib/gcc/arm-none-eabi/5.4.1/../../../../arm-none-eabi/lib/armv7e-m/fpu/fpv5-d16\libc.a(lib_a-svfiprintf.o)
 .rodata.blanks.7237
                0x00000000       0x10 c:/users/yaxing.chen/downloads/env_released_1.2.0/env/tools/gnu_gcc/arm_gcc/mingw/bin/../lib/gcc/arm-none-eabi/5.4.1/../../../../arm-none-eabi/lib/armv7e-m/fpu/fpv5-d16\libc.a(lib_a-svfiprintf.o)
 .rodata.str1.4
                0x00000000       0x2f c:/users/yaxing.chen/downloads/env_released_1.2.0/env/tools/gnu_gcc/arm_gcc/mingw/bin/../lib/gcc/arm-none-eabi/5.4.1/../../../../arm-none-eabi/lib/armv7e-m/fpu/fpv5-d16\libc.a(lib_a-svfiprintf.o)
 .rodata.zeroes.7238
                0x00000000       0x10 c:/users/yaxing.chen/downloads/env_released_1.2.0/env/tools/gnu_gcc/arm_gcc/mingw/bin/../lib/gcc/arm-none-eabi/5.4.1/../../../../arm-none-eabi/lib/armv7e-m/fpu/fpv5-d16\libc.a(lib_a-svfiprintf.o)
 .debug_frame   0x00000000       0x78 c:/users/yaxing.chen/downloads/env_released_1.2.0/env/tools/gnu_gcc/arm_gcc/mingw/bin/../lib/gcc/arm-none-eabi/5.4.1/../../../../arm-none-eabi/lib/armv7e-m/fpu/fpv5-d16\libc.a(lib_a-svfiprintf.o)
 .ARM.attributes
                0x00000000       0x32 c:/users/yaxing.chen/downloads/env_released_1.2.0/env/tools/gnu_gcc/arm_gcc/mingw/bin/../lib/gcc/arm-none-eabi/5.4.1/../../../../arm-none-eabi/lib/armv7e-m/fpu/fpv5-d16\libc.a(lib_a-svfiprintf.o)
 .text          0x00000000        0x0 c:/users/yaxing.chen/downloads/env_released_1.2.0/env/tools/gnu_gcc/arm_gcc/mingw/bin/../lib/gcc/arm-none-eabi/5.4.1/../../../../arm-none-eabi/lib/armv7e-m/fpu/fpv5-d16\libc.a(lib_a-wbuf.o)
 .data          0x00000000        0x0 c:/users/yaxing.chen/downloads/env_released_1.2.0/env/tools/gnu_gcc/arm_gcc/mingw/bin/../lib/gcc/arm-none-eabi/5.4.1/../../../../arm-none-eabi/lib/armv7e-m/fpu/fpv5-d16\libc.a(lib_a-wbuf.o)
 .bss           0x00000000        0x0 c:/users/yaxing.chen/downloads/env_released_1.2.0/env/tools/gnu_gcc/arm_gcc/mingw/bin/../lib/gcc/arm-none-eabi/5.4.1/../../../../arm-none-eabi/lib/armv7e-m/fpu/fpv5-d16\libc.a(lib_a-wbuf.o)
 .text.__swbuf  0x00000000       0x10 c:/users/yaxing.chen/downloads/env_released_1.2.0/env/tools/gnu_gcc/arm_gcc/mingw/bin/../lib/gcc/arm-none-eabi/5.4.1/../../../../arm-none-eabi/lib/armv7e-m/fpu/fpv5-d16\libc.a(lib_a-wbuf.o)
 .text          0x00000000        0x0 c:/users/yaxing.chen/downloads/env_released_1.2.0/env/tools/gnu_gcc/arm_gcc/mingw/bin/../lib/gcc/arm-none-eabi/5.4.1/../../../../arm-none-eabi/lib/armv7e-m/fpu/fpv5-d16\libc.a(lib_a-wcrtomb.o)
 .data          0x00000000        0x0 c:/users/yaxing.chen/downloads/env_released_1.2.0/env/tools/gnu_gcc/arm_gcc/mingw/bin/../lib/gcc/arm-none-eabi/5.4.1/../../../../arm-none-eabi/lib/armv7e-m/fpu/fpv5-d16\libc.a(lib_a-wcrtomb.o)
 .bss           0x00000000        0x0 c:/users/yaxing.chen/downloads/env_released_1.2.0/env/tools/gnu_gcc/arm_gcc/mingw/bin/../lib/gcc/arm-none-eabi/5.4.1/../../../../arm-none-eabi/lib/armv7e-m/fpu/fpv5-d16\libc.a(lib_a-wcrtomb.o)
 .text.wcrtomb  0x00000000       0x4c c:/users/yaxing.chen/downloads/env_released_1.2.0/env/tools/gnu_gcc/arm_gcc/mingw/bin/../lib/gcc/arm-none-eabi/5.4.1/../../../../arm-none-eabi/lib/armv7e-m/fpu/fpv5-d16\libc.a(lib_a-wcrtomb.o)
 .text          0x00000000        0x0 c:/users/yaxing.chen/downloads/env_released_1.2.0/env/tools/gnu_gcc/arm_gcc/mingw/bin/../lib/gcc/arm-none-eabi/5.4.1/../../../../arm-none-eabi/lib/armv7e-m/fpu/fpv5-d16\libc.a(lib_a-wctomb_r.o)
 .data          0x00000000        0x0 c:/users/yaxing.chen/downloads/env_released_1.2.0/env/tools/gnu_gcc/arm_gcc/mingw/bin/../lib/gcc/arm-none-eabi/5.4.1/../../../../arm-none-eabi/lib/armv7e-m/fpu/fpv5-d16\libc.a(lib_a-wctomb_r.o)
 .bss           0x00000000        0x0 c:/users/yaxing.chen/downloads/env_released_1.2.0/env/tools/gnu_gcc/arm_gcc/mingw/bin/../lib/gcc/arm-none-eabi/5.4.1/../../../../arm-none-eabi/lib/armv7e-m/fpu/fpv5-d16\libc.a(lib_a-wctomb_r.o)
 .text._wctomb_r
                0x00000000       0x24 c:/users/yaxing.chen/downloads/env_released_1.2.0/env/tools/gnu_gcc/arm_gcc/mingw/bin/../lib/gcc/arm-none-eabi/5.4.1/../../../../arm-none-eabi/lib/armv7e-m/fpu/fpv5-d16\libc.a(lib_a-wctomb_r.o)
 .text          0x00000000        0x0 c:/users/yaxing.chen/downloads/env_released_1.2.0/env/tools/gnu_gcc/arm_gcc/mingw/bin/../lib/gcc/arm-none-eabi/5.4.1/../../../../arm-none-eabi/lib/armv7e-m/fpu/fpv5-d16\libc.a(lib_a-ctype_.o)
 .data          0x00000000        0x0 c:/users/yaxing.chen/downloads/env_released_1.2.0/env/tools/gnu_gcc/arm_gcc/mingw/bin/../lib/gcc/arm-none-eabi/5.4.1/../../../../arm-none-eabi/lib/armv7e-m/fpu/fpv5-d16\libc.a(lib_a-ctype_.o)
 .bss           0x00000000        0x0 c:/users/yaxing.chen/downloads/env_released_1.2.0/env/tools/gnu_gcc/arm_gcc/mingw/bin/../lib/gcc/arm-none-eabi/5.4.1/../../../../arm-none-eabi/lib/armv7e-m/fpu/fpv5-d16\libc.a(lib_a-ctype_.o)
 .data          0x00000000        0x0 c:/users/yaxing.chen/downloads/env_released_1.2.0/env/tools/gnu_gcc/arm_gcc/mingw/bin/../lib/gcc/arm-none-eabi/5.4.1/armv7e-m/fpu/fpv5-d16\libgcc.a(_aeabi_uldivmod.o)
 .bss           0x00000000        0x0 c:/users/yaxing.chen/downloads/env_released_1.2.0/env/tools/gnu_gcc/arm_gcc/mingw/bin/../lib/gcc/arm-none-eabi/5.4.1/armv7e-m/fpu/fpv5-d16\libgcc.a(_aeabi_uldivmod.o)
 .data          0x00000000        0x0 c:/users/yaxing.chen/downloads/env_released_1.2.0/env/tools/gnu_gcc/arm_gcc/mingw/bin/../lib/gcc/arm-none-eabi/5.4.1/armv7e-m/fpu/fpv5-d16\libgcc.a(_udivmoddi4.o)
 .bss           0x00000000        0x0 c:/users/yaxing.chen/downloads/env_released_1.2.0/env/tools/gnu_gcc/arm_gcc/mingw/bin/../lib/gcc/arm-none-eabi/5.4.1/armv7e-m/fpu/fpv5-d16\libgcc.a(_udivmoddi4.o)
 .ARM.extab     0x00000000        0x0 c:/users/yaxing.chen/downloads/env_released_1.2.0/env/tools/gnu_gcc/arm_gcc/mingw/bin/../lib/gcc/arm-none-eabi/5.4.1/armv7e-m/fpu/fpv5-d16\libgcc.a(_udivmoddi4.o)
 .data          0x00000000        0x0 c:/users/yaxing.chen/downloads/env_released_1.2.0/env/tools/gnu_gcc/arm_gcc/mingw/bin/../lib/gcc/arm-none-eabi/5.4.1/armv7e-m/fpu/fpv5-d16\libgcc.a(_dvmd_tls.o)
 .bss           0x00000000        0x0 c:/users/yaxing.chen/downloads/env_released_1.2.0/env/tools/gnu_gcc/arm_gcc/mingw/bin/../lib/gcc/arm-none-eabi/5.4.1/armv7e-m/fpu/fpv5-d16\libgcc.a(_dvmd_tls.o)

Memory Configuration

Name             Origin             Length             Attributes
m_boot_data      0x70000000         0x00001000         xr
m_image_vertor_table 0x70001000         0x00001000         xr
m_interrupts     0x70002000         0x00000400         xr
m_text           0x70002400         0x003fdc00         xr
m_itcm           0x00000000         0x00020000         rw
m_dtcm           0x20000000         0x00020000         rw
m_ocram          0x20200000         0x00040000         rw
m_sdram          0x80000000         0x01e00000         rw
m_nocache        0x81e00000         0x00200000         rw
*default*        0x00000000         0xffffffff

Linker script and memory map

LOAD c:/users/yaxing.chen/downloads/env_released_1.2.0/env/tools/gnu_gcc/arm_gcc/mingw/bin/../lib/gcc/arm-none-eabi/5.4.1/../../../../arm-none-eabi/lib/armv7e-m/fpu/fpv5-d16\libm.a
LOAD c:/users/yaxing.chen/downloads/env_released_1.2.0/env/tools/gnu_gcc/arm_gcc/mingw/bin/../lib/gcc/arm-none-eabi/5.4.1/armv7e-m/fpu/fpv5-d16\libgcc.a
LOAD c:/users/yaxing.chen/downloads/env_released_1.2.0/env/tools/gnu_gcc/arm_gcc/mingw/bin/../lib/gcc/arm-none-eabi/5.4.1/../../../../arm-none-eabi/lib/armv7e-m/fpu/fpv5-d16\libc.a
LOAD build\applications\main.o
LOAD build\board\board.o
LOAD build\board\MCUX_Config\clock_config.o
LOAD build\board\MCUX_Config\pin_mux.o
LOAD build\xip\evkmimxrt1064_flexspi_nor_config.o
LOAD build\xip\evkmimxrt1064_sdram_ini_dcd.o
LOAD build\xip\fsl_flexspi_nor_boot.o
LOAD build\kernel\src\clock.o
LOAD build\kernel\src\components.o
LOAD build\kernel\src\device.o
LOAD build\kernel\src\idle.o
LOAD build\kernel\src\ipc.o
LOAD build\kernel\src\irq.o
LOAD build\kernel\src\kservice.o
LOAD build\kernel\src\memheap.o
LOAD build\kernel\src\mempool.o
LOAD build\kernel\src\object.o
LOAD build\kernel\src\scheduler.o
LOAD build\kernel\src\signal.o
LOAD build\kernel\src\thread.o
LOAD build\kernel\src\timer.o
LOAD build\kernel\libcpu\arm\common\backtrace.o
LOAD build\kernel\libcpu\arm\common\div0.o
LOAD build\kernel\libcpu\arm\common\showmem.o
LOAD build\kernel\libcpu\arm\cortex-m7\cpu_cache.o
LOAD build\kernel\libcpu\arm\cortex-m7\cpuport.o
LOAD build\kernel\libcpu\arm\cortex-m7\context_gcc.o
LOAD build\kernel\components\drivers\cputime\cputime.o
LOAD build\kernel\components\drivers\misc\pin.o
LOAD build\kernel\components\drivers\serial\serial.o
LOAD build\kernel\components\drivers\src\completion.o
LOAD build\kernel\components\drivers\src\dataqueue.o
LOAD build\kernel\components\drivers\src\pipe.o
LOAD build\kernel\components\drivers\src\ringblk_buf.o
LOAD build\kernel\components\drivers\src\ringbuffer.o
LOAD build\kernel\components\drivers\src\waitqueue.o
LOAD build\kernel\components\drivers\src\workqueue.o
LOAD build\kernel\components\finsh\shell.o
LOAD build\kernel\components\finsh\cmd.o
LOAD build\kernel\components\finsh\msh.o
LOAD build\kernel\components\libc\compilers\common\time.o
LOAD build\kernel\components\libc\compilers\newlib\libc.o
LOAD build\kernel\components\libc\compilers\newlib\libc_syms.o
LOAD build\kernel\components\libc\compilers\newlib\stdio.o
LOAD build\kernel\components\libc\compilers\newlib\syscalls.o
LOAD libraries\MIMXRT1064\MIMXRT1064\system_MIMXRT1064.o
LOAD libraries\MIMXRT1064\MIMXRT1064\drivers\fsl_common.o
LOAD libraries\MIMXRT1064\MIMXRT1064\drivers\fsl_clock.o
LOAD libraries\MIMXRT1064\MIMXRT1064\drivers\fsl_cache.o
LOAD libraries\MIMXRT1064\MIMXRT1064\gcc\startup_MIMXRT1064.o
LOAD libraries\MIMXRT1064\MIMXRT1064\drivers\fsl_gpio.o
LOAD libraries\MIMXRT1064\MIMXRT1064\drivers\fsl_lpuart.o
LOAD libraries\drivers\drv_gpio.o
LOAD libraries\drivers\drv_uart.o
LOAD c:/users/yaxing.chen/downloads/env_released_1.2.0/env/tools/gnu_gcc/arm_gcc/mingw/bin/../lib/gcc/arm-none-eabi/5.4.1/../../../../arm-none-eabi/lib/armv7e-m/fpu/fpv5-d16\libc.a
LOAD c:/users/yaxing.chen/downloads/env_released_1.2.0/env/tools/gnu_gcc/arm_gcc/mingw/bin/../lib/gcc/arm-none-eabi/5.4.1/../../../../arm-none-eabi/lib/armv7e-m/fpu/fpv5-d16\libm.a
START GROUP
LOAD c:/users/yaxing.chen/downloads/env_released_1.2.0/env/tools/gnu_gcc/arm_gcc/mingw/bin/../lib/gcc/arm-none-eabi/5.4.1/armv7e-m/fpu/fpv5-d16\libgcc.a
LOAD c:/users/yaxing.chen/downloads/env_released_1.2.0/env/tools/gnu_gcc/arm_gcc/mingw/bin/../lib/gcc/arm-none-eabi/5.4.1/../../../../arm-none-eabi/lib/armv7e-m/fpu/fpv5-d16\libc.a
END GROUP
                0x00000400                HEAP_SIZE = DEFINED (__heap_size__)?__heap_size__:0x400
                0x00000400                STACK_SIZE = DEFINED (__stack_size__)?__stack_size__:0x400

.boot_data      0x70000000      0x200
                0x70000000                . = ALIGN (0x4)
                0x70000000                __FLASH_BASE = .
 *(.boot_hdr.conf)
 .boot_hdr.conf
                0x70000000      0x200 build\xip\evkmimxrt1064_flexspi_nor_config.o
                0x70000000                qspiflash_config
                0x70000200                . = ALIGN (0x4)
                0x70001000                ivt_begin = (ORIGIN (m_boot_data) + LENGTH (m_boot_data))

.image_vertor_table
                0x70001000       0x30
                0x70001000                . = ALIGN (0x4)
 *(.boot_hdr.ivt)
 .boot_hdr.ivt  0x70001000       0x20 build\xip\fsl_flexspi_nor_boot.o
                0x70001000                image_vector_table
 *(.boot_hdr.boot_data)
 .boot_hdr.boot_data
                0x70001020       0x10 build\xip\fsl_flexspi_nor_boot.o
                0x70001020                boot_data
 *(.boot_hdr.dcd_data)
                0x70001030                . = ALIGN (0x4)

.interrupts     0x70002000      0x400
                0x70002000                __VECTOR_TABLE = .
                0x70002000                . = ALIGN (0x4)
 *(.isr_vector)
 .isr_vector    0x70002000      0x400 libraries\MIMXRT1064\MIMXRT1064\gcc\startup_MIMXRT1064.o
                0x70002000                __isr_vector
                0x70002400                . = ALIGN (0x4)
                0x70002000                __VECTOR_RAM = __VECTOR_TABLE
                0x00000000                __RAM_VECTOR_TABLE_SIZE_BYTES = 0x0

.text           0x70002400     0xa8b8
                0x70002400                . = ALIGN (0x4)
 *(.text)
 .text          0x70002400      0x13c build\kernel\libcpu\arm\cortex-m7\context_gcc.o
                0x70002400                rt_hw_interrupt_disable
                0x70002408                rt_hw_interrupt_enable
                0x7000240e                rt_hw_context_switch_interrupt
                0x7000240e                rt_hw_context_switch
                0x7000242e                PendSV_Handler
                0x7000249a                rt_hw_context_switch_to
                0x700024e0                rt_hw_interrupt_thread_switch
                0x700024e4                HardFault_Handler
 .text          0x7000253c      0x258 libraries\MIMXRT1064\MIMXRT1064\gcc\startup_MIMXRT1064.o
                0x7000253c                Reset_Handler
                0x700025c8                PWM1_FAULT_IRQHandler
                0x700025c8                FLEXSPI2_DriverIRQHandler
                0x700025c8                LPSPI2_DriverIRQHandler
                0x700025c8                SJC_IRQHandler
                0x700025c8                ADC_ETC_IRQ0_IRQHandler
                0x700025c8                DebugMon_Handler
                0x700025c8                SAI3_RX_DriverIRQHandler
                0x700025c8                PXP_IRQHandler
                0x700025c8                DMA13_DMA29_DriverIRQHandler
                0x700025c8                Reserved86_IRQHandler
                0x700025c8                SRC_IRQHandler
                0x700025c8                LPSPI4_DriverIRQHandler
                0x700025c8                ENC1_IRQHandler
                0x700025c8                SPDIF_DriverIRQHandler
                0x700025c8                GPIO1_INT2_IRQHandler
                0x700025c8                CSI_IRQHandler
                0x700025c8                ENET2_DriverIRQHandler
                0x700025c8                SNVS_LP_WRAPPER_IRQHandler
                0x700025c8                ENC2_IRQHandler
                0x700025c8                PWM2_2_IRQHandler
                0x700025c8                GPIO6_7_8_9_IRQHandler
                0x700025c8                PWM4_FAULT_IRQHandler
                0x700025c8                ACMP3_IRQHandler
                0x700025c8                GPIO1_INT7_IRQHandler
                0x700025c8                CCM_1_IRQHandler
                0x700025c8                PWM1_3_IRQHandler
                0x700025c8                CAN3_DriverIRQHandler
                0x700025c8                ADC_ETC_IRQ1_IRQHandler
                0x700025c8                TMR4_IRQHandler
                0x700025c8                CTI1_ERROR_IRQHandler
                0x700025c8                PWM3_FAULT_IRQHandler
                0x700025c8                LCDIF_IRQHandler
                0x700025c8                DMA7_DMA23_DriverIRQHandler
                0x700025c8                CTI0_ERROR_IRQHandler
                0x700025c8                PWM1_0_IRQHandler
                0x700025c8                Reserved68_IRQHandler
                0x700025c8                LPI2C3_DriverIRQHandler
                0x700025c8                TRNG_IRQHandler
                0x700025c8                USB_PHY2_IRQHandler
                0x700025c8                DMA3_DMA19_DriverIRQHandler
                0x700025c8                TSC_DIG_IRQHandler
                0x700025c8                LPI2C4_DriverIRQHandler
                0x700025c8                LPSPI1_DriverIRQHandler
                0x700025c8                TMR1_IRQHandler
                0x700025c8                PWM2_0_IRQHandler
                0x700025c8                DCP_VMI_IRQHandler
                0x700025c8                CAN1_DriverIRQHandler
                0x700025c8                DMA14_DMA30_DriverIRQHandler
                0x700025c8                PWM4_0_IRQHandler
                0x700025c8                ENET_1588_Timer_DriverIRQHandler
                0x700025c8                DMA_ERROR_DriverIRQHandler
                0x700025c8                PWM2_1_IRQHandler
                0x700025c8                DMA9_DMA25_DriverIRQHandler
                0x700025c8                PWM2_FAULT_IRQHandler
                0x700025c8                FLEXIO2_DriverIRQHandler
                0x700025c8                GPIO1_INT3_IRQHandler
                0x700025c8                UsageFault_Handler
                0x700025c8                WDOG1_IRQHandler
                0x700025c8                LPI2C2_DriverIRQHandler
                0x700025c8                PMU_EVENT_IRQHandler
                0x700025c8                GPT1_IRQHandler
                0x700025c8                ENC4_IRQHandler
                0x700025c8                PWM4_1_IRQHandler
                0x700025c8                USB_OTG2_IRQHandler
                0x700025c8                ACMP4_IRQHandler
                0x700025c8                SEMC_IRQHandler
                0x700025c8                DMA0_DMA16_DriverIRQHandler
                0x700025c8                DefaultISR
                0x700025c8                PWM1_1_IRQHandler
                0x700025c8                LPSPI3_DriverIRQHandler
                0x700025c8                DMA2_DMA18_DriverIRQHandler
                0x700025c8                PWM3_0_IRQHandler
                0x700025c8                USDHC1_DriverIRQHandler
                0x700025c8                PWM3_3_IRQHandler
                0x700025c8                GPIO1_INT0_IRQHandler
                0x700025c8                DMA15_DMA31_DriverIRQHandler
                0x700025c8                CSU_IRQHandler
                0x700025c8                Reserved87_IRQHandler
                0x700025c8                ADC1_IRQHandler
                0x700025c8                FLEXIO1_DriverIRQHandler
                0x700025c8                ENET_DriverIRQHandler
                0x700025c8                BusFault_Handler
                0x700025c8                ACMP1_IRQHandler
                0x700025c8                RTWDOG_IRQHandler
                0x700025c8                USB_PHY1_IRQHandler
                0x700025c8                Reserved78_IRQHandler
                0x700025c8                SAI1_DriverIRQHandler
                0x700025c8                DMA12_DMA28_DriverIRQHandler
                0x700025c8                ENC3_IRQHandler
                0x700025c8                EWM_IRQHandler
                0x700025c8                TEMP_LOW_HIGH_IRQHandler
                0x700025c8                WDOG2_IRQHandler
                0x700025c8                GPIO1_INT5_IRQHandler
                0x700025c8                FLEXSPI_DriverIRQHandler
                0x700025c8                DMA5_DMA21_DriverIRQHandler
                0x700025c8                PWM3_1_IRQHandler
                0x700025c8                PWM2_3_IRQHandler
                0x700025c8                DMA4_DMA20_DriverIRQHandler
                0x700025c8                CORE_IRQHandler
                0x700025c8                TMR3_IRQHandler
                0x700025c8                FLEXRAM_IRQHandler
                0x700025c8                DMA10_DMA26_DriverIRQHandler
                0x700025c8                TEMP_PANIC_IRQHandler
                0x700025c8                GPIO1_INT6_IRQHandler
                0x700025c8                PWM1_2_IRQHandler
                0x700025c8                Reserved144_IRQHandler
                0x700025c8                GPR_IRQ_IRQHandler
                0x700025c8                GPC_IRQHandler
                0x700025c8                DCDC_IRQHandler
                0x700025c8                PWM4_3_IRQHandler
                0x700025c8                GPT2_IRQHandler
                0x700025c8                DMA1_DMA17_DriverIRQHandler
                0x700025c8                USB_OTG1_IRQHandler
                0x700025c8                CAN2_DriverIRQHandler
                0x700025c8                ACMP2_IRQHandler
                0x700025c8                GPIO5_Combined_16_31_IRQHandler
                0x700025c8                TMR2_IRQHandler
                0x700025c8                ADC_ETC_ERROR_IRQ_IRQHandler
                0x700025c8                DMA8_DMA24_DriverIRQHandler
                0x700025c8                PWM4_2_IRQHandler
                0x700025c8                DMA6_DMA22_DriverIRQHandler
                0x700025c8                BEE_IRQHandler
                0x700025c8                GPIO1_INT1_IRQHandler
                0x700025c8                FLEXIO3_DriverIRQHandler
                0x700025c8                ADC_ETC_IRQ2_IRQHandler
                0x700025c8                GPIO1_INT4_IRQHandler
                0x700025c8                CCM_2_IRQHandler
                0x700025c8                KPP_IRQHandler
                0x700025c8                SAI3_TX_DriverIRQHandler
                0x700025c8                ADC2_IRQHandler
                0x700025c8                USDHC2_DriverIRQHandler
                0x700025c8                MemManage_Handler
                0x700025c8                SAI2_DriverIRQHandler
                0x700025c8                SNVS_HP_WRAPPER_TZ_IRQHandler
                0x700025c8                PIT_IRQHandler
                0x700025c8                Reserved115_IRQHandler
                0x700025c8                SNVS_HP_WRAPPER_IRQHandler
                0x700025c8                Reserved171_IRQHandler
                0x700025c8                DMA11_DMA27_DriverIRQHandler
                0x700025c8                ENET2_1588_Timer_DriverIRQHandler
                0x700025c8                XBAR1_IRQ_2_3_IRQHandler
                0x700025c8                PWM3_2_IRQHandler
                0x700025c8                XBAR1_IRQ_0_1_IRQHandler
                0x700025c8                LPI2C1_DriverIRQHandler
                0x700025c8                DCP_IRQHandler
                0x700025c8                Reserved143_IRQHandler
                0x700025cc                NMI_Handler
                0x700025d4                SVC_Handler
                0x700025e0                DMA0_DMA16_IRQHandler
                0x700025e4                DMA1_DMA17_IRQHandler
                0x700025e8                DMA2_DMA18_IRQHandler
                0x700025ec                DMA3_DMA19_IRQHandler
                0x700025f0                DMA4_DMA20_IRQHandler
                0x700025f4                DMA5_DMA21_IRQHandler
                0x700025f8                DMA6_DMA22_IRQHandler
                0x700025fc                DMA7_DMA23_IRQHandler
                0x70002600                DMA8_DMA24_IRQHandler
                0x70002604                DMA9_DMA25_IRQHandler
                0x70002608                DMA10_DMA26_IRQHandler
                0x7000260c                DMA11_DMA27_IRQHandler
                0x70002610                DMA12_DMA28_IRQHandler
                0x70002614                DMA13_DMA29_IRQHandler
                0x70002618                DMA14_DMA30_IRQHandler
                0x7000261c                DMA15_DMA31_IRQHandler
                0x70002620                DMA_ERROR_IRQHandler
                0x70002628                LPUART2_IRQHandler
                0x7000262c                LPUART3_IRQHandler
                0x70002630                LPUART4_IRQHandler
                0x70002634                LPUART5_IRQHandler
                0x70002638                LPUART6_IRQHandler
                0x7000263c                LPUART7_IRQHandler
                0x70002640                LPUART8_IRQHandler
                0x70002644                LPI2C1_IRQHandler
                0x70002648                LPI2C2_IRQHandler
                0x7000264c                LPI2C3_IRQHandler
                0x70002650                LPI2C4_IRQHandler
                0x70002654                LPSPI1_IRQHandler
                0x70002658                LPSPI2_IRQHandler
                0x7000265c                LPSPI3_IRQHandler
                0x70002660                LPSPI4_IRQHandler
                0x70002664                CAN1_IRQHandler
                0x70002668                CAN2_IRQHandler
                0x7000266c                SAI1_IRQHandler
                0x70002670                SAI2_IRQHandler
                0x70002674                SAI3_RX_IRQHandler
                0x70002678                SAI3_TX_IRQHandler
                0x7000267c                SPDIF_IRQHandler
                0x70002680                FLEXIO1_IRQHandler
                0x70002684                FLEXIO2_IRQHandler
                0x70002688                FLEXSPI2_IRQHandler
                0x7000268c                FLEXSPI_IRQHandler
                0x70002690                USDHC1_IRQHandler
                0x70002694                USDHC2_IRQHandler
                0x70002698                ENET_IRQHandler
                0x7000269c                ENET_1588_Timer_IRQHandler
                0x700026a0                ENET2_IRQHandler
                0x700026a4                ENET2_1588_Timer_IRQHandler
                0x700026a8                CAN3_IRQHandler
                0x700026ac                FLEXIO3_IRQHandler
 .text          0x70002794      0x134 c:/users/yaxing.chen/downloads/env_released_1.2.0/env/tools/gnu_gcc/arm_gcc/mingw/bin/../lib/gcc/arm-none-eabi/5.4.1/../../../../arm-none-eabi/lib/armv7e-m/fpu/fpv5-d16\libc.a(lib_a-memcpy.o)
                0x70002794                memcpy
 *fill*         0x700028c8       0x38 
 .text          0x70002900       0xdc c:/users/yaxing.chen/downloads/env_released_1.2.0/env/tools/gnu_gcc/arm_gcc/mingw/bin/../lib/gcc/arm-none-eabi/5.4.1/../../../../arm-none-eabi/lib/armv7e-m/fpu/fpv5-d16\libc.a(lib_a-strlen.o)
                0x70002900                strlen
 *fill*         0x700029dc        0x4 
 .text          0x700029e0       0xa0 c:/users/yaxing.chen/downloads/env_released_1.2.0/env/tools/gnu_gcc/arm_gcc/mingw/bin/../lib/gcc/arm-none-eabi/5.4.1/../../../../arm-none-eabi/lib/armv7e-m/fpu/fpv5-d16\libc.a(lib_a-memchr.o)
                0x700029e0                memchr
 .text          0x70002a80       0x30 c:/users/yaxing.chen/downloads/env_released_1.2.0/env/tools/gnu_gcc/arm_gcc/mingw/bin/../lib/gcc/arm-none-eabi/5.4.1/armv7e-m/fpu/fpv5-d16\libgcc.a(_aeabi_uldivmod.o)
                0x70002a80                __aeabi_uldivmod
 .text          0x70002ab0      0x2e4 c:/users/yaxing.chen/downloads/env_released_1.2.0/env/tools/gnu_gcc/arm_gcc/mingw/bin/../lib/gcc/arm-none-eabi/5.4.1/armv7e-m/fpu/fpv5-d16\libgcc.a(_udivmoddi4.o)
                0x70002ab0                __udivmoddi4
 .text          0x70002d94        0x4 c:/users/yaxing.chen/downloads/env_released_1.2.0/env/tools/gnu_gcc/arm_gcc/mingw/bin/../lib/gcc/arm-none-eabi/5.4.1/armv7e-m/fpu/fpv5-d16\libgcc.a(_dvmd_tls.o)
                0x70002d94                __aeabi_idiv0
                0x70002d94                __aeabi_ldiv0
 *(.text*)
 .text.reboot   0x70002d98       0x24 build\applications\main.o
                0x70002d98                reboot
 .text.startup.main
                0x70002dbc       0x2c build\applications\main.o
                0x70002dbc                main
 .text.SysTick_Handler
                0x70002de8       0x12 build\board\board.o
                0x70002de8                SysTick_Handler
 *fill*         0x70002dfa        0x2 
 .text.rt_hw_board_init
                0x70002dfc      0x1d4 build\board\board.o
                0x70002dfc                rt_hw_board_init
 .text.CLOCK_SetDiv
                0x70002fd0       0x5c build\board\MCUX_Config\clock_config.o
 .text.CLOCK_SetMux
                0x7000302c       0x5c build\board\MCUX_Config\clock_config.o
 .text.CLOCK_DisableClock
                0x70003088       0x40 build\board\MCUX_Config\clock_config.o
 .text.BOARD_BootClockRUN
                0x700030c8      0x598 build\board\MCUX_Config\clock_config.o
                0x700030c8                BOARD_BootClockRUN
 .text.BOARD_InitPins
                0x70003660       0x34 build\board\MCUX_Config\pin_mux.o
                0x70003660                BOARD_InitPins
 .text.rt_tick_get
                0x70003694        0xc build\kernel\src\clock.o
                0x70003694                rt_tick_get
 .text.rt_tick_increase
                0x700036a0       0x38 build\kernel\src\clock.o
                0x700036a0                rt_tick_increase
 .text.rt_tick_from_millisecond
                0x700036d8       0x2a build\kernel\src\clock.o
                0x700036d8                rt_tick_from_millisecond
 .text.rti_end  0x70003702        0x4 build\kernel\src\components.o
 .text.rti_board_end
                0x70003706        0x4 build\kernel\src\components.o
 .text.rti_start
                0x7000370a        0x4 build\kernel\src\components.o
 .text.rti_board_start
                0x7000370e        0x4 build\kernel\src\components.o
 *fill*         0x70003712        0x2 
 .text.rt_components_board_init
                0x70003714       0x1c build\kernel\src\components.o
                0x70003714                rt_components_board_init
 .text.rt_components_init
                0x70003730       0x1c build\kernel\src\components.o
                0x70003730                rt_components_init
 .text.main_thread_entry
                0x7000374c        0xe build\kernel\src\components.o
                0x7000374c                main_thread_entry
 *fill*         0x7000375a        0x2 
 .text.rt_application_init
                0x7000375c       0x44 build\kernel\src\components.o
                0x7000375c                rt_application_init
 .text.rtthread_startup
                0x700037a0       0x2a build\kernel\src\components.o
                0x700037a0                rtthread_startup
 .text.entry    0x700037ca        0xa build\kernel\src\components.o
                0x700037ca                entry
 .text.rt_device_find
                0x700037d4       0x64 build\kernel\src\device.o
                0x700037d4                rt_device_find
 .text.rt_device_register
                0x70003838       0x30 build\kernel\src\device.o
                0x70003838                rt_device_register
 .text.rt_device_open
                0x70003868       0xb4 build\kernel\src\device.o
                0x70003868                rt_device_open
 .text.rt_device_close
                0x7000391c       0x64 build\kernel\src\device.o
                0x7000391c                rt_device_close
 .text.rt_device_read
                0x70003980       0x68 build\kernel\src\device.o
                0x70003980                rt_device_read
 .text.rt_device_write
                0x700039e8       0x68 build\kernel\src\device.o
                0x700039e8                rt_device_write
 .text.rt_device_set_rx_indicate
                0x70003a50       0x3c build\kernel\src\device.o
                0x70003a50                rt_device_set_rx_indicate
 .text.rt_thread_idle_excute
                0x70003a8c       0xac build\kernel\src\idle.o
                0x70003a8c                rt_thread_idle_excute
 .text.rt_thread_idle_entry
                0x70003b38       0x20 build\kernel\src\idle.o
 .text.rt_thread_idle_init
                0x70003b58       0x48 build\kernel\src\idle.o
                0x70003b58                rt_thread_idle_init
 .text.rt_ipc_list_resume.isra.0
                0x70003ba0        0xc build\kernel\src\ipc.o
 .text.rt_ipc_list_suspend
                0x70003bac       0x4c build\kernel\src\ipc.o
 .text.rt_sem_init
                0x70003bf8       0x4c build\kernel\src\ipc.o
                0x70003bf8                rt_sem_init
 .text.rt_sem_take
                0x70003c44      0x118 build\kernel\src\ipc.o
                0x70003c44                rt_sem_take
 .text.rt_sem_release
                0x70003d5c       0x74 build\kernel\src\ipc.o
                0x70003d5c                rt_sem_release
 .text.rt_interrupt_enter
                0x70003dd0       0x2c build\kernel\src\irq.o
                0x70003dd0                rt_interrupt_enter
 .text.rt_interrupt_leave
                0x70003dfc       0x2c build\kernel\src\irq.o
                0x70003dfc                rt_interrupt_leave
 .text.rt_interrupt_get_nest
                0x70003e28       0x18 build\kernel\src\irq.o
                0x70003e28                rt_interrupt_get_nest
 .text.print_number
                0x70003e40      0x178 build\kernel\src\kservice.o
 .text.rt_set_errno
                0x70003fb8       0x20 build\kernel\src\kservice.o
                0x70003fb8                rt_set_errno
 .text.rt_memset
                0x70003fd8       0x6e build\kernel\src\kservice.o
                0x70003fd8                rt_memset
 .text.rt_memcpy
                0x70004046       0x8e build\kernel\src\kservice.o
                0x70004046                rt_memcpy
 .text.rt_memmove
                0x700040d4       0x36 build\kernel\src\kservice.o
                0x700040d4                rt_memmove
 .text.rt_strncpy
                0x7000410a       0x22 build\kernel\src\kservice.o
                0x7000410a                rt_strncpy
 .text.rt_strncmp
                0x7000412c       0x22 build\kernel\src\kservice.o
                0x7000412c                rt_strncmp
 .text.rt_strlen
                0x7000414e       0x10 build\kernel\src\kservice.o
                0x7000414e                rt_strlen
 *fill*         0x7000415e        0x2 
 .text.rt_vsnprintf
                0x70004160      0x2c4 build\kernel\src\kservice.o
                0x70004160                rt_vsnprintf
 .text.rt_vsprintf
                0x70004424        0xc build\kernel\src\kservice.o
                0x70004424                rt_vsprintf
 .text.rt_sprintf
                0x70004430       0x1a build\kernel\src\kservice.o
                0x70004430                rt_sprintf
 *fill*         0x7000444a        0x2 
 .text.rt_console_get_device
                0x7000444c        0xc build\kernel\src\kservice.o
                0x7000444c                rt_console_get_device
 .text.rt_console_set_device
                0x70004458       0x28 build\kernel\src\kservice.o
                0x70004458                rt_console_set_device
 .text.rt_hw_console_output
                0x70004480        0x2 build\kernel\src\kservice.o
                0x70004480                rt_hw_console_output
 *fill*         0x70004482        0x2 
 .text.rt_kprintf
                0x70004484       0x50 build\kernel\src\kservice.o
                0x70004484                rt_kprintf
 .text.rt_show_version
                0x700044d4       0x40 build\kernel\src\kservice.o
                0x700044d4                rt_show_version
 .text.__rt_ffs
                0x70004514       0x3c build\kernel\src\kservice.o
                0x70004514                __rt_ffs
 .text.rt_assert_handler
                0x70004550       0x34 build\kernel\src\kservice.o
                0x70004550                rt_assert_handler
 .text.rt_memheap_init
                0x70004584       0x94 build\kernel\src\memheap.o
                0x70004584                rt_memheap_init
 .text.rt_memheap_alloc
                0x70004618      0x138 build\kernel\src\memheap.o
                0x70004618                rt_memheap_alloc
 .text.rt_memheap_free
                0x70004750      0x128 build\kernel\src\memheap.o
                0x70004750                rt_memheap_free
 .text.rt_memheap_realloc
                0x70004878      0x1c4 build\kernel\src\memheap.o
                0x70004878                rt_memheap_realloc
 .text.rt_system_heap_init
                0x70004a3c       0x14 build\kernel\src\memheap.o
                0x70004a3c                rt_system_heap_init
 .text.rt_malloc
                0x70004a50       0x8c build\kernel\src\memheap.o
                0x70004a50                rt_malloc
 .text.rt_free  0x70004adc        0x4 build\kernel\src\memheap.o
                0x70004adc                rt_free
 .text.rt_realloc
                0x70004ae0       0x50 build\kernel\src\memheap.o
                0x70004ae0                rt_realloc
 .text.rt_calloc
                0x70004b30       0x1c build\kernel\src\memheap.o
                0x70004b30                rt_calloc
 .text.rt_object_get_information
                0x70004b4c       0x24 build\kernel\src\object.o
                0x70004b4c                rt_object_get_information
 .text.rt_object_init
                0x70004b70       0x94 build\kernel\src\object.o
                0x70004b70                rt_object_init
 .text.rt_object_detach
                0x70004c04       0x4c build\kernel\src\object.o
                0x70004c04                rt_object_detach
 .text.rt_object_allocate
                0x70004c50       0xa0 build\kernel\src\object.o
                0x70004c50                rt_object_allocate
 .text.rt_object_delete
                0x70004cf0       0x68 build\kernel\src\object.o
                0x70004cf0                rt_object_delete
 .text.rt_object_is_systemobject
                0x70004d58       0x24 build\kernel\src\object.o
                0x70004d58                rt_object_is_systemobject
 .text.rt_object_get_type
                0x70004d7c       0x24 build\kernel\src\object.o
                0x70004d7c                rt_object_get_type
 .text.rt_system_scheduler_init
                0x70004da0       0x34 build\kernel\src\scheduler.o
                0x70004da0                rt_system_scheduler_init
 .text.rt_schedule_insert_thread
                0x70004dd4       0x78 build\kernel\src\scheduler.o
                0x70004dd4                rt_schedule_insert_thread
 .text.rt_schedule_remove_thread
                0x70004e4c       0x60 build\kernel\src\scheduler.o
                0x70004e4c                rt_schedule_remove_thread
 .text.rt_system_scheduler_start
                0x70004eac       0x3c build\kernel\src\scheduler.o
                0x70004eac                rt_system_scheduler_start
 .text.rt_schedule
                0x70004ee8      0x128 build\kernel\src\scheduler.o
                0x70004ee8                rt_schedule
 .text.rt_enter_critical
                0x70005010       0x1c build\kernel\src\scheduler.o
                0x70005010                rt_enter_critical
 .text.rt_exit_critical
                0x7000502c       0x3c build\kernel\src\scheduler.o
                0x7000502c                rt_exit_critical
 .text.rt_thread_exit
                0x70005068       0x5c build\kernel\src\thread.o
                0x70005068                rt_thread_exit
 .text._rt_thread_init.isra.0
                0x700050c4       0x98 build\kernel\src\thread.o
 .text.rt_thread_timeout
                0x7000515c       0x78 build\kernel\src\thread.o
                0x7000515c                rt_thread_timeout
 .text.rt_thread_init
                0x700051d4       0x68 build\kernel\src\thread.o
                0x700051d4                rt_thread_init
 .text.rt_thread_self
                0x7000523c        0xc build\kernel\src\thread.o
                0x7000523c                rt_thread_self
 .text.rt_thread_create
                0x70005248       0x4a build\kernel\src\thread.o
                0x70005248                rt_thread_create
 .text.rt_thread_yield
                0x70005292        0xa build\kernel\src\thread.o
                0x70005292                rt_thread_yield
 .text.rt_thread_suspend
                0x7000529c       0xa8 build\kernel\src\thread.o
                0x7000529c                rt_thread_suspend
 .text.rt_thread_sleep
                0x70005344       0x78 build\kernel\src\thread.o
                0x70005344                rt_thread_sleep
 .text.rt_thread_mdelay
                0x700053bc        0xe build\kernel\src\thread.o
                0x700053bc                rt_thread_mdelay
 *fill*         0x700053ca        0x2 
 .text.rt_thread_resume
                0x700053cc       0x84 build\kernel\src\thread.o
                0x700053cc                rt_thread_resume
 .text.rt_thread_startup
                0x70005450       0x78 build\kernel\src\thread.o
                0x70005450                rt_thread_startup
 .text._rt_timer_remove
                0x700054c8       0x14 build\kernel\src\timer.o
 .text.rt_timer_init
                0x700054dc       0x48 build\kernel\src\timer.o
                0x700054dc                rt_timer_init
 .text.rt_timer_detach
                0x70005524       0x64 build\kernel\src\timer.o
                0x70005524                rt_timer_detach
 .text.rt_timer_start
                0x70005588       0xd0 build\kernel\src\timer.o
                0x70005588                rt_timer_start
 .text.rt_timer_stop
                0x70005658       0x6c build\kernel\src\timer.o
                0x70005658                rt_timer_stop
 .text.rt_timer_control
                0x700056c4       0x74 build\kernel\src\timer.o
                0x700056c4                rt_timer_control
 .text.rt_timer_check
                0x70005738       0x88 build\kernel\src\timer.o
                0x70005738                rt_timer_check
 .text.rt_system_timer_init
                0x700057c0        0xc build\kernel\src\timer.o
                0x700057c0                rt_system_timer_init
 .text.rt_system_timer_thread_init
                0x700057cc        0x2 build\kernel\src\timer.o
                0x700057cc                rt_system_timer_thread_init
 *fill*         0x700057ce        0x2 
 .text.rt_hw_stack_init
                0x700057d0       0x4c build\kernel\libcpu\arm\cortex-m7\cpuport.o
                0x700057d0                rt_hw_stack_init
 .text.rt_hw_hard_fault_exception
                0x7000581c      0x2e4 build\kernel\libcpu\arm\cortex-m7\cpuport.o
                0x7000581c                rt_hw_hard_fault_exception
 .text._pin_control
                0x70005b00       0x34 build\kernel\components\drivers\misc\pin.o
 .text.rt_pin_mode
                0x70005b34       0x34 build\kernel\components\drivers\misc\pin.o
                0x70005b34                rt_pin_mode
 .text.rt_pin_write
                0x70005b68       0x34 build\kernel\components\drivers\misc\pin.o
                0x70005b68                rt_pin_write
 .text.rt_pin_read
                0x70005b9c       0x30 build\kernel\components\drivers\misc\pin.o
                0x70005b9c                rt_pin_read
 .text.rt_pin_get
                0x70005bcc       0x4c build\kernel\components\drivers\misc\pin.o
                0x70005bcc                rt_pin_get
 .text._pin_write
                0x70005c18       0x3c build\kernel\components\drivers\misc\pin.o
 .text._pin_read
                0x70005c54       0x3c build\kernel\components\drivers\misc\pin.o
 .text.rt_device_pin_register
                0x70005c90       0x44 build\kernel\components\drivers\misc\pin.o
                0x70005c90                rt_device_pin_register
 .text.rt_serial_init
                0x70005cd4       0x38 build\kernel\components\drivers\serial\serial.o
 .text.rt_serial_open
                0x70005d0c      0x11c build\kernel\components\drivers\serial\serial.o
 .text.rt_serial_control
                0x70005e28       0x88 build\kernel\components\drivers\serial\serial.o
 .text.rt_serial_write
                0x70005eb0       0x9c build\kernel\components\drivers\serial\serial.o
 .text.rt_serial_read
                0x70005f4c       0xc4 build\kernel\components\drivers\serial\serial.o
 .text.rt_serial_close
                0x70006010       0x98 build\kernel\components\drivers\serial\serial.o
 .text.rt_hw_serial_register
                0x700060a8       0x68 build\kernel\components\drivers\serial\serial.o
                0x700060a8                rt_hw_serial_register
 .text.rt_hw_serial_isr
                0x70006110       0xec build\kernel\components\drivers\serial\serial.o
                0x70006110                rt_hw_serial_isr
 .text.rt_completion_init
                0x700061fc       0x30 build\kernel\components\drivers\src\completion.o
                0x700061fc                rt_completion_init
 .text.rt_completion_wait
                0x7000622c       0xd4 build\kernel\components\drivers\src\completion.o
                0x7000622c                rt_completion_wait
 .text.rt_completion_done
                0x70006300       0x50 build\kernel\components\drivers\src\completion.o
                0x70006300                rt_completion_done
 .text.finsh_rx_ind
                0x70006350       0x2c build\kernel\components\finsh\shell.o
 .text.finsh_get_prompt
                0x7000637c       0x60 build\kernel\components\finsh\shell.o
                0x7000637c                finsh_get_prompt
 .text.shell_handle_history
                0x700063dc       0x28 build\kernel\components\finsh\shell.o
 .text.finsh_set_prompt_mode
                0x70006404       0x34 build\kernel\components\finsh\shell.o
                0x70006404                finsh_set_prompt_mode
 .text.finsh_system_init
                0x70006438       0xa4 build\kernel\components\finsh\shell.o
                0x70006438                finsh_system_init
 .text.finsh_set_device
                0x700064dc       0x98 build\kernel\components\finsh\shell.o
                0x700064dc                finsh_set_device
 .text.finsh_thread_entry
                0x70006574      0x3e8 build\kernel\components\finsh\shell.o
                0x70006574                finsh_thread_entry
 .text.rt_list_len
                0x7000695c       0x12 build\kernel\components\finsh\cmd.o
 *fill*         0x7000696e        0x2 
 .text.hello    0x70006970       0x10 build\kernel\components\finsh\cmd.o
                0x70006970                hello
 .text.clear    0x70006980       0x10 build\kernel\components\finsh\cmd.o
 .text.show_wait_queue
                0x70006990       0x30 build\kernel\components\finsh\cmd.o
 .text.version  0x700069c0        0xa build\kernel\components\finsh\cmd.o
                0x700069c0                version
 .text.list_get_next
                0x700069ca       0x66 build\kernel\components\finsh\cmd.o
 .text.list     0x70006a30       0x48 build\kernel\components\finsh\cmd.o
                0x70006a30                list
 .text.object_split.constprop.1
                0x70006a78       0x18 build\kernel\components\finsh\cmd.o
 .text.list_thread
                0x70006a90      0x128 build\kernel\components\finsh\cmd.o
                0x70006a90                list_thread
 .text.list_memheap
                0x70006bb8       0xa0 build\kernel\components\finsh\cmd.o
                0x70006bb8                list_memheap
 .text.list_device
                0x70006c58       0xb4 build\kernel\components\finsh\cmd.o
                0x70006c58                list_device
 .text.list_mutex
                0x70006d0c       0xb4 build\kernel\components\finsh\cmd.o
                0x70006d0c                list_mutex
 .text.list_timer
                0x70006dc0       0xc4 build\kernel\components\finsh\cmd.o
                0x70006dc0                list_timer
 .text.list_event
                0x70006e84       0xd8 build\kernel\components\finsh\cmd.o
                0x70006e84                list_event
 .text.list_msgqueue
                0x70006f5c       0xe0 build\kernel\components\finsh\cmd.o
                0x70006f5c                list_msgqueue
 .text.list_sem
                0x7000703c       0xe0 build\kernel\components\finsh\cmd.o
                0x7000703c                list_sem
 .text.list_mailbox
                0x7000711c       0xe8 build\kernel\components\finsh\cmd.o
                0x7000711c                list_mailbox
 .text.list_mempool
                0x70007204       0xe8 build\kernel\components\finsh\cmd.o
                0x70007204                list_mempool
 .text.msh_help
                0x700072ec       0x54 build\kernel\components\finsh\msh.o
                0x700072ec                msh_help
 .text.cmd_ps   0x70007340        0xa build\kernel\components\finsh\msh.o
                0x70007340                cmd_ps
 .text.cmd_free
                0x7000734a        0xa build\kernel\components\finsh\msh.o
                0x7000734a                cmd_free
 .text.msh_is_used
                0x70007354        0x4 build\kernel\components\finsh\msh.o
                0x70007354                msh_is_used
 .text.msh_exec
                0x70007358      0x198 build\kernel\components\finsh\msh.o
                0x70007358                msh_exec
 .text.msh_auto_complete
                0x700074f0       0xb4 build\kernel\components\finsh\msh.o
                0x700074f0                msh_auto_complete
 .text.libc_system_init
                0x700075a4        0x4 build\kernel\components\libc\compilers\newlib\libc.o
                0x700075a4                libc_system_init
 .text._close_r
                0x700075a8        0x4 build\kernel\components\libc\compilers\newlib\syscalls.o
                0x700075a8                _close_r
 .text._fstat_r
                0x700075ac        0xa build\kernel\components\libc\compilers\newlib\syscalls.o
                0x700075ac                _fstat_r
 .text._isatty_r
                0x700075b6       0x10 build\kernel\components\libc\compilers\newlib\syscalls.o
                0x700075b6                _isatty_r
 .text._lseek_r
                0x700075c6        0x4 build\kernel\components\libc\compilers\newlib\syscalls.o
                0x700075c6                _lseek_r
 .text._read_r  0x700075ca        0x4 build\kernel\components\libc\compilers\newlib\syscalls.o
                0x700075ca                _read_r
 *fill*         0x700075ce        0x2 
 .text._write_r
                0x700075d0       0x34 build\kernel\components\libc\compilers\newlib\syscalls.o
                0x700075d0                _write_r
 .text._malloc_r
                0x70007604       0x12 build\kernel\components\libc\compilers\newlib\syscalls.o
                0x70007604                _malloc_r
 .text._realloc_r
                0x70007616       0x14 build\kernel\components\libc\compilers\newlib\syscalls.o
                0x70007616                _realloc_r
 .text._free_r  0x7000762a        0x6 build\kernel\components\libc\compilers\newlib\syscalls.o
                0x7000762a                _free_r
 .text.abort    0x70007630       0x28 build\kernel\components\libc\compilers\newlib\syscalls.o
                0x70007630                abort
 .text.SystemInitHook
                0x70007658        0x2 libraries\MIMXRT1064\MIMXRT1064\system_MIMXRT1064.o
                0x70007658                SystemInitHook
 *fill*         0x7000765a        0x2 
 .text.SystemInit
                0x7000765c      0x118 libraries\MIMXRT1064\MIMXRT1064\system_MIMXRT1064.o
                0x7000765c                SystemInit
 .text.CLOCK_GetOscFreq
                0x70007774       0x20 libraries\MIMXRT1064\MIMXRT1064\drivers\fsl_clock.o
 .text.CLOCK_InitExternalClk
                0x70007794       0x50 libraries\MIMXRT1064\MIMXRT1064\drivers\fsl_clock.o
                0x70007794                CLOCK_InitExternalClk
 .text.CLOCK_SwitchOsc
                0x700077e4       0x18 libraries\MIMXRT1064\MIMXRT1064\drivers\fsl_clock.o
                0x700077e4                CLOCK_SwitchOsc
 .text.CLOCK_InitRcOsc24M
                0x700077fc       0x14 libraries\MIMXRT1064\MIMXRT1064\drivers\fsl_clock.o
                0x700077fc                CLOCK_InitRcOsc24M
 .text.CLOCK_InitArmPll
                0x70007810       0x44 libraries\MIMXRT1064\MIMXRT1064\drivers\fsl_clock.o
                0x70007810                CLOCK_InitArmPll
 .text.CLOCK_DeinitUsb2Pll
                0x70007854        0xc libraries\MIMXRT1064\MIMXRT1064\drivers\fsl_clock.o
                0x70007854                CLOCK_DeinitUsb2Pll
 .text.CLOCK_DeinitAudioPll
                0x70007860       0x10 libraries\MIMXRT1064\MIMXRT1064\drivers\fsl_clock.o
                0x70007860                CLOCK_DeinitAudioPll
 .text.CLOCK_DeinitVideoPll
                0x70007870       0x10 libraries\MIMXRT1064\MIMXRT1064\drivers\fsl_clock.o
                0x70007870                CLOCK_DeinitVideoPll
 .text.CLOCK_DeinitEnetPll
                0x70007880       0x10 libraries\MIMXRT1064\MIMXRT1064\drivers\fsl_clock.o
                0x70007880                CLOCK_DeinitEnetPll
 .text.CLOCK_GetPllFreq
                0x70007890      0x208 libraries\MIMXRT1064\MIMXRT1064\drivers\fsl_clock.o
                0x70007890                CLOCK_GetPllFreq
 .text.GPIO_PinWrite
                0x70007a98       0x38 libraries\MIMXRT1064\MIMXRT1064\drivers\fsl_gpio.o
                0x70007a98                GPIO_PinWrite
 .text.GPIO_PinSetInterruptConfig
                0x70007ad0       0x80 libraries\MIMXRT1064\MIMXRT1064\drivers\fsl_gpio.o
                0x70007ad0                GPIO_PinSetInterruptConfig
 .text.GPIO_PinInit
                0x70007b50       0xb0 libraries\MIMXRT1064\MIMXRT1064\drivers\fsl_gpio.o
                0x70007b50                GPIO_PinInit
 .text.CLOCK_ControlGate
                0x70007c00       0x44 libraries\MIMXRT1064\MIMXRT1064\drivers\fsl_lpuart.o
 .text.LPUART_GetInstance
                0x70007c44       0x34 libraries\MIMXRT1064\MIMXRT1064\drivers\fsl_lpuart.o
                0x70007c44                LPUART_GetInstance
 .text.LPUART_Init
                0x70007c78      0x1ec libraries\MIMXRT1064\MIMXRT1064\drivers\fsl_lpuart.o
                0x70007c78                LPUART_Init
 .text.LPUART_GetDefaultConfig
                0x70007e64       0x44 libraries\MIMXRT1064\MIMXRT1064\drivers\fsl_lpuart.o
                0x70007e64                LPUART_GetDefaultConfig
 .text.LPUART_EnableInterrupts
                0x70007ea8       0x28 libraries\MIMXRT1064\MIMXRT1064\drivers\fsl_lpuart.o
                0x70007ea8                LPUART_EnableInterrupts
 .text.LPUART_GetStatusFlags
                0x70007ed0        0xe libraries\MIMXRT1064\MIMXRT1064\drivers\fsl_lpuart.o
                0x70007ed0                LPUART_GetStatusFlags
 *fill*         0x70007ede        0x2 
 .text.LPUART_ClearStatusFlags
                0x70007ee0       0x48 libraries\MIMXRT1064\MIMXRT1064\drivers\fsl_lpuart.o
                0x70007ee0                LPUART_ClearStatusFlags
 .text.LPUART1_DriverIRQHandler
                0x70007f28       0x18 libraries\MIMXRT1064\MIMXRT1064\drivers\fsl_lpuart.o
                0x70007f28                LPUART1_DriverIRQHandler
 .text.LPUART2_DriverIRQHandler
                0x70007f40       0x18 libraries\MIMXRT1064\MIMXRT1064\drivers\fsl_lpuart.o
                0x70007f40                LPUART2_DriverIRQHandler
 .text.LPUART3_DriverIRQHandler
                0x70007f58       0x18 libraries\MIMXRT1064\MIMXRT1064\drivers\fsl_lpuart.o
                0x70007f58                LPUART3_DriverIRQHandler
 .text.LPUART4_DriverIRQHandler
                0x70007f70       0x18 libraries\MIMXRT1064\MIMXRT1064\drivers\fsl_lpuart.o
                0x70007f70                LPUART4_DriverIRQHandler
 .text.LPUART5_DriverIRQHandler
                0x70007f88       0x18 libraries\MIMXRT1064\MIMXRT1064\drivers\fsl_lpuart.o
                0x70007f88                LPUART5_DriverIRQHandler
 .text.LPUART6_DriverIRQHandler
                0x70007fa0       0x18 libraries\MIMXRT1064\MIMXRT1064\drivers\fsl_lpuart.o
                0x70007fa0                LPUART6_DriverIRQHandler
 .text.LPUART7_DriverIRQHandler
                0x70007fb8       0x18 libraries\MIMXRT1064\MIMXRT1064\drivers\fsl_lpuart.o
                0x70007fb8                LPUART7_DriverIRQHandler
 .text.LPUART8_DriverIRQHandler
                0x70007fd0       0x18 libraries\MIMXRT1064\MIMXRT1064\drivers\fsl_lpuart.o
                0x70007fd0                LPUART8_DriverIRQHandler
 .text.imxrt_isr
                0x70007fe8       0x54 libraries\drivers\drv_gpio.o
 .text.rt_hw_pin_init
                0x7000803c       0x14 libraries\drivers\drv_gpio.o
                0x7000803c                rt_hw_pin_init
 .text.imxrt_pin_read
                0x70008050       0x38 libraries\drivers\drv_gpio.o
 .text.imxrt_pin_write
                0x70008088       0x34 libraries\drivers\drv_gpio.o
 .text.imxrt_pin_detach_irq
                0x700080bc       0x5c libraries\drivers\drv_gpio.o
 .text.imxrt_pin_attach_irq
                0x70008118       0x80 libraries\drivers\drv_gpio.o
 .text.imxrt_pin_irq_enable
                0x70008198      0x108 libraries\drivers\drv_gpio.o
 .text.imxrt_pin_mode
                0x700082a0       0xcc libraries\drivers\drv_gpio.o
 .text.GPIO1_Combined_0_15_IRQHandler
                0x7000836c       0x1c libraries\drivers\drv_gpio.o
                0x7000836c                GPIO1_Combined_0_15_IRQHandler
 .text.GPIO1_Combined_16_31_IRQHandler
                0x70008388       0x1c libraries\drivers\drv_gpio.o
                0x70008388                GPIO1_Combined_16_31_IRQHandler
 .text.GPIO2_Combined_0_15_IRQHandler
                0x700083a4       0x1c libraries\drivers\drv_gpio.o
                0x700083a4                GPIO2_Combined_0_15_IRQHandler
 .text.GPIO2_Combined_16_31_IRQHandler
                0x700083c0       0x1c libraries\drivers\drv_gpio.o
                0x700083c0                GPIO2_Combined_16_31_IRQHandler
 .text.GPIO3_Combined_0_15_IRQHandler
                0x700083dc       0x1c libraries\drivers\drv_gpio.o
                0x700083dc                GPIO3_Combined_0_15_IRQHandler
 .text.GPIO3_Combined_16_31_IRQHandler
                0x700083f8       0x1c libraries\drivers\drv_gpio.o
                0x700083f8                GPIO3_Combined_16_31_IRQHandler
 .text.GPIO4_Combined_0_15_IRQHandler
                0x70008414       0x1c libraries\drivers\drv_gpio.o
                0x70008414                GPIO4_Combined_0_15_IRQHandler
 .text.GPIO4_Combined_16_31_IRQHandler
                0x70008430       0x1c libraries\drivers\drv_gpio.o
                0x70008430                GPIO4_Combined_16_31_IRQHandler
 .text.GPIO5_Combined_0_15_IRQHandler
                0x7000844c       0x1c libraries\drivers\drv_gpio.o
                0x7000844c                GPIO5_Combined_0_15_IRQHandler
 .text.imxrt_getc
                0x70008468       0x4c libraries\drivers\drv_uart.o
 .text.imxrt_putc
                0x700084b4       0x34 libraries\drivers\drv_uart.o
 .text.rt_hw_uart_init
                0x700084e8       0x44 libraries\drivers\drv_uart.o
                0x700084e8                rt_hw_uart_init
 .text.imxrt_control
                0x7000852c       0xd8 libraries\drivers\drv_uart.o
 .text.LPUART1_IRQHandler
                0x70008604       0x40 libraries\drivers\drv_uart.o
                0x70008604                LPUART1_IRQHandler
 .text.GetUartSrcFreq
                0x70008644       0x5c libraries\drivers\drv_uart.o
                0x70008644                GetUartSrcFreq
 .text.imxrt_configure
                0x700086a0       0x98 libraries\drivers\drv_uart.o
 .text.__assert_func
                0x70008738       0x3c c:/users/yaxing.chen/downloads/env_released_1.2.0/env/tools/gnu_gcc/arm_gcc/mingw/bin/../lib/gcc/arm-none-eabi/5.4.1/../../../../arm-none-eabi/lib/armv7e-m/fpu/fpv5-d16\libc.a(lib_a-assert.o)
                0x70008738                __assert_func
 .text._fclose_r
                0x70008774       0x84 c:/users/yaxing.chen/downloads/env_released_1.2.0/env/tools/gnu_gcc/arm_gcc/mingw/bin/../lib/gcc/arm-none-eabi/5.4.1/../../../../arm-none-eabi/lib/armv7e-m/fpu/fpv5-d16\libc.a(lib_a-fclose.o)
                0x70008774                _fclose_r
 .text.__sflush_r
                0x700087f8      0x148 c:/users/yaxing.chen/downloads/env_released_1.2.0/env/tools/gnu_gcc/arm_gcc/mingw/bin/../lib/gcc/arm-none-eabi/5.4.1/../../../../arm-none-eabi/lib/armv7e-m/fpu/fpv5-d16\libc.a(lib_a-fflush.o)
                0x700087f8                __sflush_r
 .text._fflush_r
                0x70008940       0x2c c:/users/yaxing.chen/downloads/env_released_1.2.0/env/tools/gnu_gcc/arm_gcc/mingw/bin/../lib/gcc/arm-none-eabi/5.4.1/../../../../arm-none-eabi/lib/armv7e-m/fpu/fpv5-d16\libc.a(lib_a-fflush.o)
                0x70008940                _fflush_r
 .text.fileno   0x7000896c       0x34 c:/users/yaxing.chen/downloads/env_released_1.2.0/env/tools/gnu_gcc/arm_gcc/mingw/bin/../lib/gcc/arm-none-eabi/5.4.1/../../../../arm-none-eabi/lib/armv7e-m/fpu/fpv5-d16\libc.a(lib_a-fileno.o)
                0x7000896c                fileno
 .text._cleanup_r
                0x700089a0        0xc c:/users/yaxing.chen/downloads/env_released_1.2.0/env/tools/gnu_gcc/arm_gcc/mingw/bin/../lib/gcc/arm-none-eabi/5.4.1/../../../../arm-none-eabi/lib/armv7e-m/fpu/fpv5-d16\libc.a(lib_a-findfp.o)
                0x700089a0                _cleanup_r
 .text.__sinit.part.1
                0x700089ac       0xf0 c:/users/yaxing.chen/downloads/env_released_1.2.0/env/tools/gnu_gcc/arm_gcc/mingw/bin/../lib/gcc/arm-none-eabi/5.4.1/../../../../arm-none-eabi/lib/armv7e-m/fpu/fpv5-d16\libc.a(lib_a-findfp.o)
 .text.__sinit  0x70008a9c        0xc c:/users/yaxing.chen/downloads/env_released_1.2.0/env/tools/gnu_gcc/arm_gcc/mingw/bin/../lib/gcc/arm-none-eabi/5.4.1/../../../../arm-none-eabi/lib/armv7e-m/fpu/fpv5-d16\libc.a(lib_a-findfp.o)
                0x70008a9c                __sinit
 .text.__sfp_lock_acquire
                0x70008aa8        0x4 c:/users/yaxing.chen/downloads/env_released_1.2.0/env/tools/gnu_gcc/arm_gcc/mingw/bin/../lib/gcc/arm-none-eabi/5.4.1/../../../../arm-none-eabi/lib/armv7e-m/fpu/fpv5-d16\libc.a(lib_a-findfp.o)
                0x70008aa8                __sfp_lock_acquire
 .text.__sfp_lock_release
                0x70008aac        0x4 c:/users/yaxing.chen/downloads/env_released_1.2.0/env/tools/gnu_gcc/arm_gcc/mingw/bin/../lib/gcc/arm-none-eabi/5.4.1/../../../../arm-none-eabi/lib/armv7e-m/fpu/fpv5-d16\libc.a(lib_a-findfp.o)
                0x70008aac                __sfp_lock_release
 .text.fiprintf
                0x70008ab0       0x28 c:/users/yaxing.chen/downloads/env_released_1.2.0/env/tools/gnu_gcc/arm_gcc/mingw/bin/../lib/gcc/arm-none-eabi/5.4.1/../../../../arm-none-eabi/lib/armv7e-m/fpu/fpv5-d16\libc.a(lib_a-fiprintf.o)
                0x70008ab0                fiprintf
 .text._fwalk_reent
                0x70008ad8       0x54 c:/users/yaxing.chen/downloads/env_released_1.2.0/env/tools/gnu_gcc/arm_gcc/mingw/bin/../lib/gcc/arm-none-eabi/5.4.1/../../../../arm-none-eabi/lib/armv7e-m/fpu/fpv5-d16\libc.a(lib_a-fwalk.o)
                0x70008ad8                _fwalk_reent
 .text.__swhatbuf_r
                0x70008b2c       0x60 c:/users/yaxing.chen/downloads/env_released_1.2.0/env/tools/gnu_gcc/arm_gcc/mingw/bin/../lib/gcc/arm-none-eabi/5.4.1/../../../../arm-none-eabi/lib/armv7e-m/fpu/fpv5-d16\libc.a(lib_a-makebuf.o)
                0x70008b2c                __swhatbuf_r
 .text.__smakebuf_r
                0x70008b8c       0x88 c:/users/yaxing.chen/downloads/env_released_1.2.0/env/tools/gnu_gcc/arm_gcc/mingw/bin/../lib/gcc/arm-none-eabi/5.4.1/../../../../arm-none-eabi/lib/armv7e-m/fpu/fpv5-d16\libc.a(lib_a-makebuf.o)
                0x70008b8c                __smakebuf_r
 .text.memcmp   0x70008c14       0x64 c:/users/yaxing.chen/downloads/env_released_1.2.0/env/tools/gnu_gcc/arm_gcc/mingw/bin/../lib/gcc/arm-none-eabi/5.4.1/../../../../arm-none-eabi/lib/armv7e-m/fpu/fpv5-d16\libc.a(lib_a-memcmp.o)
                0x70008c14                memcmp
 .text.memset   0x70008c78       0x9c c:/users/yaxing.chen/downloads/env_released_1.2.0/env/tools/gnu_gcc/arm_gcc/mingw/bin/../lib/gcc/arm-none-eabi/5.4.1/../../../../arm-none-eabi/lib/armv7e-m/fpu/fpv5-d16\libc.a(lib_a-memset.o)
                0x70008c78                memset
 .text.__sread  0x70008d14       0x24 c:/users/yaxing.chen/downloads/env_released_1.2.0/env/tools/gnu_gcc/arm_gcc/mingw/bin/../lib/gcc/arm-none-eabi/5.4.1/../../../../arm-none-eabi/lib/armv7e-m/fpu/fpv5-d16\libc.a(lib_a-stdio.o)
                0x70008d14                __sread
 .text.__swrite
                0x70008d38       0x3c c:/users/yaxing.chen/downloads/env_released_1.2.0/env/tools/gnu_gcc/arm_gcc/mingw/bin/../lib/gcc/arm-none-eabi/5.4.1/../../../../arm-none-eabi/lib/armv7e-m/fpu/fpv5-d16\libc.a(lib_a-stdio.o)
                0x70008d38                __swrite
 .text.__sseek  0x70008d74       0x20 c:/users/yaxing.chen/downloads/env_released_1.2.0/env/tools/gnu_gcc/arm_gcc/mingw/bin/../lib/gcc/arm-none-eabi/5.4.1/../../../../arm-none-eabi/lib/armv7e-m/fpu/fpv5-d16\libc.a(lib_a-stdio.o)
                0x70008d74                __sseek
 .text.__sclose
                0x70008d94        0x8 c:/users/yaxing.chen/downloads/env_released_1.2.0/env/tools/gnu_gcc/arm_gcc/mingw/bin/../lib/gcc/arm-none-eabi/5.4.1/../../../../arm-none-eabi/lib/armv7e-m/fpu/fpv5-d16\libc.a(lib_a-stdio.o)
                0x70008d94                __sclose
 .text.strcat   0x70008d9c       0x40 c:/users/yaxing.chen/downloads/env_released_1.2.0/env/tools/gnu_gcc/arm_gcc/mingw/bin/../lib/gcc/arm-none-eabi/5.4.1/../../../../arm-none-eabi/lib/armv7e-m/fpu/fpv5-d16\libc.a(lib_a-strcat.o)
                0x70008d9c                strcat
 .text.strcpy   0x70008ddc       0xbc c:/users/yaxing.chen/downloads/env_released_1.2.0/env/tools/gnu_gcc/arm_gcc/mingw/bin/../lib/gcc/arm-none-eabi/5.4.1/../../../../arm-none-eabi/lib/armv7e-m/fpu/fpv5-d16\libc.a(lib_a-strcpy.o)
                0x70008ddc                strcpy
 .text.strncmp  0x70008e98       0xa0 c:/users/yaxing.chen/downloads/env_released_1.2.0/env/tools/gnu_gcc/arm_gcc/mingw/bin/../lib/gcc/arm-none-eabi/5.4.1/../../../../arm-none-eabi/lib/armv7e-m/fpu/fpv5-d16\libc.a(lib_a-strncmp.o)
                0x70008e98                strncmp
 .text.strncpy  0x70008f38       0x68 c:/users/yaxing.chen/downloads/env_released_1.2.0/env/tools/gnu_gcc/arm_gcc/mingw/bin/../lib/gcc/arm-none-eabi/5.4.1/../../../../arm-none-eabi/lib/armv7e-m/fpu/fpv5-d16\libc.a(lib_a-strncpy.o)
                0x70008f38                strncpy
 .text.__sprint_r.part.0
                0x70008fa0       0x78 c:/users/yaxing.chen/downloads/env_released_1.2.0/env/tools/gnu_gcc/arm_gcc/mingw/bin/../lib/gcc/arm-none-eabi/5.4.1/../../../../arm-none-eabi/lib/armv7e-m/fpu/fpv5-d16\libc.a(lib_a-vfiprintf.o)
 .text._vfiprintf_r
                0x70009018      0xdfc c:/users/yaxing.chen/downloads/env_released_1.2.0/env/tools/gnu_gcc/arm_gcc/mingw/bin/../lib/gcc/arm-none-eabi/5.4.1/../../../../arm-none-eabi/lib/armv7e-m/fpu/fpv5-d16\libc.a(lib_a-vfiprintf.o)
                0x70009018                _vfiprintf_r
 .text.__sbprintf
                0x70009e14       0x6c c:/users/yaxing.chen/downloads/env_released_1.2.0/env/tools/gnu_gcc/arm_gcc/mingw/bin/../lib/gcc/arm-none-eabi/5.4.1/../../../../arm-none-eabi/lib/armv7e-m/fpu/fpv5-d16\libc.a(lib_a-vfiprintf.o)
 .text.__swsetup_r
                0x70009e80       0xc8 c:/users/yaxing.chen/downloads/env_released_1.2.0/env/tools/gnu_gcc/arm_gcc/mingw/bin/../lib/gcc/arm-none-eabi/5.4.1/../../../../arm-none-eabi/lib/armv7e-m/fpu/fpv5-d16\libc.a(lib_a-wsetup.o)
                0x70009e80                __swsetup_r
 .text.__fputwc
                0x70009f48       0x98 c:/users/yaxing.chen/downloads/env_released_1.2.0/env/tools/gnu_gcc/arm_gcc/mingw/bin/../lib/gcc/arm-none-eabi/5.4.1/../../../../arm-none-eabi/lib/armv7e-m/fpu/fpv5-d16\libc.a(lib_a-fputwc.o)
                0x70009f48                __fputwc
 .text._fputwc_r
                0x70009fe0       0x28 c:/users/yaxing.chen/downloads/env_released_1.2.0/env/tools/gnu_gcc/arm_gcc/mingw/bin/../lib/gcc/arm-none-eabi/5.4.1/../../../../arm-none-eabi/lib/armv7e-m/fpu/fpv5-d16\libc.a(lib_a-fputwc.o)
                0x70009fe0                _fputwc_r
 .text.__sfvwrite_r
                0x7000a008      0x304 c:/users/yaxing.chen/downloads/env_released_1.2.0/env/tools/gnu_gcc/arm_gcc/mingw/bin/../lib/gcc/arm-none-eabi/5.4.1/../../../../arm-none-eabi/lib/armv7e-m/fpu/fpv5-d16\libc.a(lib_a-fvwrite.o)
                0x7000a008                __sfvwrite_r
 .text.__locale_mb_cur_max
                0x7000a30c       0x1c c:/users/yaxing.chen/downloads/env_released_1.2.0/env/tools/gnu_gcc/arm_gcc/mingw/bin/../lib/gcc/arm-none-eabi/5.4.1/../../../../arm-none-eabi/lib/armv7e-m/fpu/fpv5-d16\libc.a(lib_a-locale.o)
                0x7000a30c                __locale_mb_cur_max
 .text.__ascii_mbtowc
                0x7000a328       0x2c c:/users/yaxing.chen/downloads/env_released_1.2.0/env/tools/gnu_gcc/arm_gcc/mingw/bin/../lib/gcc/arm-none-eabi/5.4.1/../../../../arm-none-eabi/lib/armv7e-m/fpu/fpv5-d16\libc.a(lib_a-mbtowc_r.o)
                0x7000a328                __ascii_mbtowc
 .text.memmove  0x7000a354       0xc8 c:/users/yaxing.chen/downloads/env_released_1.2.0/env/tools/gnu_gcc/arm_gcc/mingw/bin/../lib/gcc/arm-none-eabi/5.4.1/../../../../arm-none-eabi/lib/armv7e-m/fpu/fpv5-d16\libc.a(lib_a-memmove.o)
                0x7000a354                memmove
 .text.__swbuf_r
                0x7000a41c       0xac c:/users/yaxing.chen/downloads/env_released_1.2.0/env/tools/gnu_gcc/arm_gcc/mingw/bin/../lib/gcc/arm-none-eabi/5.4.1/../../../../arm-none-eabi/lib/armv7e-m/fpu/fpv5-d16\libc.a(lib_a-wbuf.o)
                0x7000a41c                __swbuf_r
 .text._wcrtomb_r
                0x7000a4c8       0x54 c:/users/yaxing.chen/downloads/env_released_1.2.0/env/tools/gnu_gcc/arm_gcc/mingw/bin/../lib/gcc/arm-none-eabi/5.4.1/../../../../arm-none-eabi/lib/armv7e-m/fpu/fpv5-d16\libc.a(lib_a-wcrtomb.o)
                0x7000a4c8                _wcrtomb_r
 .text.__ascii_wctomb
                0x7000a51c       0x1c c:/users/yaxing.chen/downloads/env_released_1.2.0/env/tools/gnu_gcc/arm_gcc/mingw/bin/../lib/gcc/arm-none-eabi/5.4.1/../../../../arm-none-eabi/lib/armv7e-m/fpu/fpv5-d16\libc.a(lib_a-wctomb_r.o)
                0x7000a51c                __ascii_wctomb
 *(.rodata)
 .rodata        0x7000a538       0x10 libraries\MIMXRT1064\MIMXRT1064\drivers\fsl_clock.o
 .rodata        0x7000a548        0x8 libraries\drivers\drv_uart.o
 *(.rodata*)
 .rodata.name   0x7000a550       0x1a build\applications\main.o
                0x7000a550                __fsym___cmd_reboot_desc
                0x7000a55d                __fsym___cmd_reboot_name
 .rodata.str1.1
                0x7000a56a        0x6 build\board\board.o
 .rodata.__func__.9257
                0x7000a570       0x12 build\board\MCUX_Config\clock_config.o
 *fill*         0x7000a582        0x2 
 .rodata.armPllConfig_BOARD_BootClockRUN
                0x7000a584        0x8 build\board\MCUX_Config\clock_config.o
                0x7000a584                armPllConfig_BOARD_BootClockRUN
 .rodata.str1.1
                0x7000a58c       0x5d build\board\MCUX_Config\clock_config.o
 .rodata.__func__.9231
                0x7000a5e9        0xd build\board\MCUX_Config\clock_config.o
 .rodata.__func__.9243
                0x7000a5f6        0xd build\board\MCUX_Config\clock_config.o
 .rodata.dcd_data
                0x7000a603        0x1 build\xip\evkmimxrt1064_sdram_ini_dcd.o
                0x7000a603                dcd_data
 .rodata.__FUNCTION__.5750
                0x7000a604       0x14 build\kernel\src\components.o
 .rodata.str1.1
                0x7000a618       0x14 build\kernel\src\components.o
 .rodata.__FUNCTION__.5685
                0x7000a62c       0x10 build\kernel\src\device.o
 .rodata.__FUNCTION__.5671
                0x7000a63c       0x10 build\kernel\src\device.o
 .rodata.__FUNCTION__.5642
                0x7000a64c        0xf build\kernel\src\device.o
 .rodata.str1.1
                0x7000a65b      0x107 build\kernel\src\device.o
 .rodata.__FUNCTION__.5698
                0x7000a762       0x1a build\kernel\src\device.o
 .rodata.__FUNCTION__.5666
                0x7000a77c        0xf build\kernel\src\device.o
 .rodata.__FUNCTION__.5678
                0x7000a78b        0xf build\kernel\src\device.o
 .rodata.__FUNCTION__.5733
                0x7000a79a       0x16 build\kernel\src\idle.o
 .rodata.str1.1
                0x7000a7b0       0x2f build\kernel\src\idle.o
                                 0x31 (size before relaxing)
 .rodata.str1.1
                0x7000a7df      0x41b build\kernel\src\ipc.o
                                0x444 (size before relaxing)
 .rodata.__FUNCTION__.5763
                0x7000abfa        0xc build\kernel\src\ipc.o
 .rodata.__FUNCTION__.5774
                0x7000ac06        0xf build\kernel\src\ipc.o
 .rodata.__FUNCTION__.5739
                0x7000ac15        0xc build\kernel\src\ipc.o
 .rodata.str1.1
                0x7000ac21       0xbf build\kernel\src\kservice.o
 .rodata.__lowest_bit_bitmap
                0x7000ace0      0x100 build\kernel\src\kservice.o
                0x7000ace0                __lowest_bit_bitmap
 .rodata.small_digits.5871
                0x7000ade0       0x11 build\kernel\src\kservice.o
 .rodata.large_digits.5872
                0x7000adf1       0x11 build\kernel\src\kservice.o
 .rodata.__FUNCTION__.5744
                0x7000ae02       0x10 build\kernel\src\memheap.o
 .rodata.__FUNCTION__.5758
                0x7000ae12        0xa build\kernel\src\memheap.o
 .rodata.str1.1
                0x7000ae1c      0x12d build\kernel\src\memheap.o
                                0x159 (size before relaxing)
 .rodata.__FUNCTION__.5705
                0x7000af49       0x10 build\kernel\src\memheap.o
 .rodata.__FUNCTION__.5717
                0x7000af59       0x11 build\kernel\src\memheap.o
 .rodata.__FUNCTION__.5731
                0x7000af6a       0x13 build\kernel\src\memheap.o
 .rodata.__FUNCTION__.5813
                0x7000af7d       0x13 build\kernel\src\object.o
 .rodata.__FUNCTION__.5800
                0x7000af90       0x13 build\kernel\src\object.o
 .rodata.__FUNCTION__.5805
                0x7000afa3       0x11 build\kernel\src\object.o
 .rodata.__FUNCTION__.5809
                0x7000afb4       0x1a build\kernel\src\object.o
 .rodata.str1.1
                0x7000afce       0x49 build\kernel\src\object.o
                                 0x89 (size before relaxing)
 .rodata.__FUNCTION__.5782
                0x7000b017        0xf build\kernel\src\object.o
 .rodata.__FUNCTION__.5791
                0x7000b026       0x11 build\kernel\src\object.o
 .rodata.__FUNCTION__.5757
                0x7000b037       0x1a build\kernel\src\scheduler.o
 .rodata.str1.1
                0x7000b051       0x61 build\kernel\src\scheduler.o
 .rodata.__FUNCTION__.5763
                0x7000b0b2       0x1a build\kernel\src\scheduler.o
 .rodata.__FUNCTION__.5821
                0x7000b0cc       0x11 build\kernel\src\thread.o
 .rodata.__FUNCTION__.5745
                0x7000b0dd        0xf build\kernel\src\thread.o
 .rodata.__FUNCTION__.5754
                0x7000b0ec       0x12 build\kernel\src\thread.o
 .rodata.str1.1
                0x7000b0fe      0x181 build\kernel\src\thread.o
                                0x1aa (size before relaxing)
 .rodata.__FUNCTION__.5816
                0x7000b27f       0x12 build\kernel\src\thread.o
 .rodata.__FUNCTION__.5826
                0x7000b291       0x12 build\kernel\src\thread.o
 .rodata.__FUNCTION__.5784
                0x7000b2a3       0x10 build\kernel\src\thread.o
 .rodata.__FUNCTION__.5733
                0x7000b2b3       0x10 build\kernel\src\thread.o
 .rodata.__FUNCTION__.5754
                0x7000b2c3       0x10 build\kernel\src\timer.o
 .rodata.__FUNCTION__.5795
                0x7000b2d3        0xe build\kernel\src\timer.o
 .rodata.__FUNCTION__.5801
                0x7000b2e1       0x11 build\kernel\src\timer.o
 .rodata.__FUNCTION__.5749
                0x7000b2f2        0xe build\kernel\src\timer.o
 .rodata.str1.1
                0x7000b300       0xd0 build\kernel\src\timer.o
 .rodata.__FUNCTION__.5778
                0x7000b3d0        0xf build\kernel\src\timer.o
 .rodata.str1.1
                0x7000b3df      0x24a build\kernel\libcpu\arm\cortex-m7\cpuport.o
                                0x26b (size before relaxing)
 .rodata.__FUNCTION__.7572
                0x7000b629        0xc build\kernel\components\drivers\misc\pin.o
 .rodata.__FUNCTION__.7528
                0x7000b635        0xa build\kernel\components\drivers\misc\pin.o
 .rodata.__FUNCTION__.7580
                0x7000b63f        0xd build\kernel\components\drivers\misc\pin.o
 .rodata.__FUNCTION__.7537
                0x7000b64c        0xb build\kernel\components\drivers\misc\pin.o
 .rodata.__FUNCTION__.7587
                0x7000b657        0xc build\kernel\components\drivers\misc\pin.o
 .rodata.name   0x7000b663       0x91 build\kernel\components\drivers\misc\pin.o
                0x7000b663                __fsym_pinGet_desc
                0x7000b684                __fsym_pinGet_name
                0x7000b68b                __fsym_pinRead_desc
                0x7000b6a9                __fsym_pinRead_name
                0x7000b6b1                __fsym_pinWrite_desc
                0x7000b6cd                __fsym_pinWrite_name
                0x7000b6d6                __fsym_pinMode_desc
                0x7000b6ec                __fsym_pinMode_name
 .rodata.__FUNCTION__.7594
                0x7000b6f4        0xb build\kernel\components\drivers\misc\pin.o
 .rodata.str1.1
                0x7000b6ff       0x35 build\kernel\components\drivers\misc\pin.o
 .rodata.__FUNCTION__.7545
                0x7000b734        0xd build\kernel\components\drivers\misc\pin.o
 .rodata.__FUNCTION__.6227
                0x7000b741       0x11 build\kernel\components\drivers\serial\serial.o
 .rodata.__FUNCTION__.6187
                0x7000b752        0xf build\kernel\components\drivers\serial\serial.o
 .rodata.__FUNCTION__.6195
                0x7000b761       0x10 build\kernel\components\drivers\serial\serial.o
 .rodata.__FUNCTION__.6137
                0x7000b771        0xf build\kernel\components\drivers\serial\serial.o
 .rodata.__FUNCTION__.6150
                0x7000b780        0xf build\kernel\components\drivers\serial\serial.o
 .rodata.str1.1
                0x7000b78f       0xbe build\kernel\components\drivers\serial\serial.o
                                 0xcd (size before relaxing)
 .rodata.__FUNCTION__.6203
                0x7000b84d       0x12 build\kernel\components\drivers\serial\serial.o
 .rodata.__FUNCTION__.6163
                0x7000b85f        0xf build\kernel\components\drivers\serial\serial.o
 .rodata.__FUNCTION__.6170
                0x7000b86e        0xf build\kernel\components\drivers\serial\serial.o
 .rodata.__FUNCTION__.6218
                0x7000b87d       0x16 build\kernel\components\drivers\serial\serial.o
 .rodata.__FUNCTION__.6177
                0x7000b893       0x10 build\kernel\components\drivers\serial\serial.o
 .rodata.__FUNCTION__.6128
                0x7000b8a3       0x13 build\kernel\components\drivers\src\completion.o
 .rodata.str1.1
                0x7000b8b6       0x45 build\kernel\components\drivers\src\completion.o
                                 0x6e (size before relaxing)
 .rodata.__FUNCTION__.6113
                0x7000b8fb       0x13 build\kernel\components\drivers\src\completion.o
 .rodata.__FUNCTION__.6121
                0x7000b90e       0x13 build\kernel\components\drivers\src\completion.o
 .rodata.__FUNCTION__.7250
                0x7000b921       0x16 build\kernel\components\finsh\shell.o
 .rodata.__FUNCTION__.7255
                0x7000b937        0xe build\kernel\components\finsh\shell.o
 .rodata.str1.1
                0x7000b945       0x79 build\kernel\components\finsh\shell.o
                                 0x80 (size before relaxing)
 .rodata.__FUNCTION__.7263
                0x7000b9be        0xd build\kernel\components\finsh\shell.o
 .rodata.__FUNCTION__.7268
                0x7000b9cb       0x11 build\kernel\components\finsh\shell.o
 .rodata.name   0x7000b9dc      0x3cb build\kernel\components\finsh\cmd.o
                0x7000b9dc                __fsym_list_desc
                0x7000b9f6                __fsym_list_name
                0x7000b9fb                __fsym___cmd_list_device_desc
                0x7000ba11                __fsym___cmd_list_device_name
                0x7000ba23                __fsym_list_device_desc
                0x7000ba39                __fsym_list_device_name
                0x7000ba45                __fsym___cmd_list_timer_desc
                0x7000ba5a                __fsym___cmd_list_timer_name
                0x7000ba6b                __fsym_list_timer_desc
                0x7000ba80                __fsym_list_timer_name
                0x7000ba8b                __fsym___cmd_list_mempool_desc
                0x7000baa6                __fsym___cmd_list_mempool_name
                0x7000bab9                __fsym_list_mempool_desc
                0x7000bad4                __fsym_list_mempool_name
                0x7000bae1                __fsym___cmd_list_memheap_desc
                0x7000bafc                __fsym___cmd_list_memheap_name
                0x7000bb0f                __fsym_list_memheap_desc
                0x7000bb2a                __fsym_list_memheap_name
                0x7000bb37                __fsym___cmd_list_msgqueue_desc
                0x7000bb54                __fsym___cmd_list_msgqueue_name
                0x7000bb68                __fsym_list_msgqueue_desc
                0x7000bb85                __fsym_list_msgqueue_name
                0x7000bb93                __fsym___cmd_list_mailbox_desc
                0x7000bbab                __fsym___cmd_list_mailbox_name
                0x7000bbbe                __fsym_list_mailbox_desc
                0x7000bbd6                __fsym_list_mailbox_name
                0x7000bbe3                __fsym___cmd_list_mutex_desc
                0x7000bbf8                __fsym___cmd_list_mutex_name
                0x7000bc09                __fsym_list_mutex_desc
                0x7000bc1e                __fsym_list_mutex_name
                0x7000bc29                __fsym___cmd_list_event_desc
                0x7000bc3e                __fsym___cmd_list_event_name
                0x7000bc4f                __fsym_list_event_desc
                0x7000bc64                __fsym_list_event_name
                0x7000bc6f                __fsym___cmd_list_sem_desc
                0x7000bc88                __fsym___cmd_list_sem_name
                0x7000bc97                __fsym_list_sem_desc
                0x7000bcb0                __fsym_list_sem_name
                0x7000bcb9                __fsym___cmd_list_thread_desc
                0x7000bcc5                __fsym___cmd_list_thread_name
                0x7000bcd7                __fsym_list_thread_desc
                0x7000bce3                __fsym_list_thread_name
                0x7000bcef                __fsym___cmd_version_desc
                0x7000bd12                __fsym___cmd_version_name
                0x7000bd20                __fsym_version_desc
                0x7000bd43                __fsym_version_name
                0x7000bd4b                __fsym___cmd_clear_desc
                0x7000bd65                __fsym___cmd_clear_name
                0x7000bd71                __fsym_clear_desc
                0x7000bd8b                __fsym_clear_name
                0x7000bd91                __fsym_hello_desc
                0x7000bda1                __fsym_hello_name
 .rodata.str1.1
                0x7000bda7      0x603 build\kernel\components\finsh\cmd.o
                                0x62f (size before relaxing)
 *fill*         0x7000c3aa        0x2 
 .rodata.device_type_str
                0x7000c3ac       0x58 build\kernel\components\finsh\cmd.o
 .rodata.name   0x7000c404       0x76 build\kernel\components\finsh\msh.o
                0x7000c404                __fsym___cmd_free_desc
                0x7000c429                __fsym___cmd_free_name
                0x7000c434                __fsym___cmd_ps_desc
                0x7000c450                __fsym___cmd_ps_name
                0x7000c459                __fsym___cmd_help_desc
                0x7000c46f                __fsym___cmd_help_name
 .rodata.str1.1
                0x7000c47a       0x68 build\kernel\components\finsh\msh.o
                                 0x6e (size before relaxing)
 .rodata.str1.1
                0x7000c4e2       0x42 build\kernel\components\libc\compilers\newlib\syscalls.o
                                 0x44 (size before relaxing)
 .rodata.__func__.9428
                0x7000c524       0x16 libraries\MIMXRT1064\MIMXRT1064\drivers\fsl_clock.o
 .rodata.str1.1
                0x7000c53a       0x43 libraries\MIMXRT1064\MIMXRT1064\drivers\fsl_clock.o
 .rodata.__func__.9257
                0x7000c57d       0x12 libraries\MIMXRT1064\MIMXRT1064\drivers\fsl_gpio.o
 *fill*         0x7000c58f        0x1 
 .rodata.s_gpioClock
                0x7000c590        0xc libraries\MIMXRT1064\MIMXRT1064\drivers\fsl_gpio.o
 .rodata.str1.1
                0x7000c59c       0x93 libraries\MIMXRT1064\MIMXRT1064\drivers\fsl_gpio.o
                                 0x9e (size before relaxing)
 *fill*         0x7000c62f        0x1 
 .rodata.s_gpioBases
                0x7000c630       0x28 libraries\MIMXRT1064\MIMXRT1064\drivers\fsl_gpio.o
 .rodata.__func__.9522
                0x7000c658       0x11 libraries\MIMXRT1064\MIMXRT1064\drivers\fsl_gpio.o
 .rodata.__func__.9533
                0x7000c669        0xe libraries\MIMXRT1064\MIMXRT1064\drivers\fsl_gpio.o
 .rodata.__func__.9713
                0x7000c677        0xc libraries\MIMXRT1064\MIMXRT1064\drivers\fsl_lpuart.o
 .rodata.__func__.9740
                0x7000c683       0x18 libraries\MIMXRT1064\MIMXRT1064\drivers\fsl_lpuart.o
 *fill*         0x7000c69b        0x1 
 .rodata.s_lpuartBases
                0x7000c69c       0x24 libraries\MIMXRT1064\MIMXRT1064\drivers\fsl_lpuart.o
 .rodata.str1.1
                0x7000c6c0      0x12b libraries\MIMXRT1064\MIMXRT1064\drivers\fsl_lpuart.o
                                0x17c (size before relaxing)
 .rodata.__func__.9257
                0x7000c7eb       0x12 libraries\MIMXRT1064\MIMXRT1064\drivers\fsl_lpuart.o
 .rodata.__func__.9673
                0x7000c7fd       0x13 libraries\MIMXRT1064\MIMXRT1064\drivers\fsl_lpuart.o
 .rodata.s_lpuartClock
                0x7000c810       0x12 libraries\MIMXRT1064\MIMXRT1064\drivers\fsl_lpuart.o
 *fill*         0x7000c822        0x2 
 .rodata.mask_tab
                0x7000c824       0x28 libraries\drivers\drv_gpio.o
                0x7000c824                mask_tab
 .rodata.irq_tab
                0x7000c84c       0x14 libraries\drivers\drv_gpio.o
 .rodata.imxrt_pin_ops
                0x7000c860       0x1c libraries\drivers\drv_gpio.o
 .rodata.str1.1
                0x7000c87c        0x4 libraries\drivers\drv_gpio.o
 .rodata.CSWTCH.25
                0x7000c880        0x4 libraries\drivers\drv_gpio.o
 .rodata.reg_offset
                0x7000c884       0x80 libraries\drivers\drv_gpio.o
                0x7000c884                reg_offset
 .rodata.imxrt_uart_ops
                0x7000c904       0x14 libraries\drivers\drv_uart.o
 .rodata.__FUNCTION__.11814
                0x7000c918        0xb libraries\drivers\drv_uart.o
 .rodata.str1.1
                0x7000c923        0xf libraries\drivers\drv_uart.o
                                 0x27 (size before relaxing)
 .rodata.__FUNCTION__.11805
                0x7000c932        0xb libraries\drivers\drv_uart.o
 .rodata.__FUNCTION__.11779
                0x7000c93d       0x10 libraries\drivers\drv_uart.o
 .rodata.__FUNCTION__.11796
                0x7000c94d        0xe libraries\drivers\drv_uart.o
 *fill*         0x7000c95b        0x1 
 .rodata.str1.4
                0x7000c95c       0x3f c:/users/yaxing.chen/downloads/env_released_1.2.0/env/tools/gnu_gcc/arm_gcc/mingw/bin/../lib/gcc/arm-none-eabi/5.4.1/../../../../arm-none-eabi/lib/armv7e-m/fpu/fpv5-d16\libc.a(lib_a-assert.o)
                                 0x43 (size before relaxing)
 *fill*         0x7000c99b        0x1 
 .rodata.zeroes.7252
                0x7000c99c       0x10 c:/users/yaxing.chen/downloads/env_released_1.2.0/env/tools/gnu_gcc/arm_gcc/mingw/bin/../lib/gcc/arm-none-eabi/5.4.1/../../../../arm-none-eabi/lib/armv7e-m/fpu/fpv5-d16\libc.a(lib_a-vfiprintf.o)
 .rodata.blanks.7251
                0x7000c9ac       0x10 c:/users/yaxing.chen/downloads/env_released_1.2.0/env/tools/gnu_gcc/arm_gcc/mingw/bin/../lib/gcc/arm-none-eabi/5.4.1/../../../../arm-none-eabi/lib/armv7e-m/fpu/fpv5-d16\libc.a(lib_a-vfiprintf.o)
 .rodata.str1.4
                0x7000c9bc       0x2f c:/users/yaxing.chen/downloads/env_released_1.2.0/env/tools/gnu_gcc/arm_gcc/mingw/bin/../lib/gcc/arm-none-eabi/5.4.1/../../../../arm-none-eabi/lib/armv7e-m/fpu/fpv5-d16\libc.a(lib_a-vfiprintf.o)
 *fill*         0x7000c9eb        0x1 
 .rodata.str1.4
                0x7000c9ec       0x10 c:/users/yaxing.chen/downloads/env_released_1.2.0/env/tools/gnu_gcc/arm_gcc/mingw/bin/../lib/gcc/arm-none-eabi/5.4.1/../../../../arm-none-eabi/lib/armv7e-m/fpu/fpv5-d16\libc.a(lib_a-locale.o)
                                 0x12 (size before relaxing)
 .rodata._ctype_
                0x7000c9fc      0x101 c:/users/yaxing.chen/downloads/env_released_1.2.0/env/tools/gnu_gcc/arm_gcc/mingw/bin/../lib/gcc/arm-none-eabi/5.4.1/../../../../arm-none-eabi/lib/armv7e-m/fpu/fpv5-d16\libc.a(lib_a-ctype_.o)
                0x7000c9fc                _ctype_
 *(.glue_7)
 .glue_7        0x7000cafd        0x0 linker stubs
 *(.glue_7t)
 .glue_7t       0x7000cafd        0x0 linker stubs
 *(.eh_frame)
 *(.init)
 *(.fini)
                0x7000cb00                . = ALIGN (0x4)
 *fill*         0x7000cafd        0x3 
                0x7000cb00                . = ALIGN (0x4)
                0x7000cb00                __fsymtab_start = .
 *(FSymTab)
 FSymTab        0x7000cb00        0xc build\applications\main.o
                0x7000cb00                __fsym___cmd_reboot
 FSymTab        0x7000cb0c       0x30 build\kernel\components\drivers\misc\pin.o
                0x7000cb0c                __fsym_pinGet
                0x7000cb18                __fsym_pinRead
                0x7000cb24                __fsym_pinWrite
                0x7000cb30                __fsym_pinMode
 FSymTab        0x7000cb3c      0x138 build\kernel\components\finsh\cmd.o
                0x7000cb3c                __fsym_list
                0x7000cb48                __fsym___cmd_list_device
                0x7000cb54                __fsym_list_device
                0x7000cb60                __fsym___cmd_list_timer
                0x7000cb6c                __fsym_list_timer
                0x7000cb78                __fsym___cmd_list_mempool
                0x7000cb84                __fsym_list_mempool
                0x7000cb90                __fsym___cmd_list_memheap
                0x7000cb9c                __fsym_list_memheap
                0x7000cba8                __fsym___cmd_list_msgqueue
                0x7000cbb4                __fsym_list_msgqueue
                0x7000cbc0                __fsym___cmd_list_mailbox
                0x7000cbcc                __fsym_list_mailbox
                0x7000cbd8                __fsym___cmd_list_mutex
                0x7000cbe4                __fsym_list_mutex
                0x7000cbf0                __fsym___cmd_list_event
                0x7000cbfc                __fsym_list_event
                0x7000cc08                __fsym___cmd_list_sem
                0x7000cc14                __fsym_list_sem
                0x7000cc20                __fsym___cmd_list_thread
                0x7000cc2c                __fsym_list_thread
                0x7000cc38                __fsym___cmd_version
                0x7000cc44                __fsym_version
                0x7000cc50                __fsym___cmd_clear
                0x7000cc5c                __fsym_clear
                0x7000cc68                __fsym_hello
 FSymTab        0x7000cc74       0x24 build\kernel\components\finsh\msh.o
                0x7000cc74                __fsym___cmd_free
                0x7000cc80                __fsym___cmd_ps
                0x7000cc8c                __fsym___cmd_help
                0x7000cc98                __fsymtab_end = .
                0x7000cc98                . = ALIGN (0x4)
                0x7000cc98                __vsymtab_start = .
 *(VSymTab)
                0x7000cc98                __vsymtab_end = .
                0x7000cc98                . = ALIGN (0x4)
                0x7000cc98                . = ALIGN (0x4)
                0x7000cc98                __rt_init_start = .
 *(SORT(.rti_fn*))
 .rti_fn.0      0x7000cc98        0x4 build\kernel\src\components.o
                0x7000cc98                __rt_init_rti_start
 .rti_fn.0.end  0x7000cc9c        0x4 build\kernel\src\components.o
                0x7000cc9c                __rt_init_rti_board_start
 .rti_fn.1      0x7000cca0        0x4 libraries\drivers\drv_gpio.o
                0x7000cca0                __rt_init_rt_hw_pin_init
 .rti_fn.1      0x7000cca4        0x4 libraries\drivers\drv_uart.o
                0x7000cca4                __rt_init_rt_hw_uart_init
 .rti_fn.1.end  0x7000cca8        0x4 build\kernel\src\components.o
                0x7000cca8                __rt_init_rti_board_end
 .rti_fn.4      0x7000ccac        0x4 build\kernel\components\libc\compilers\newlib\libc.o
                0x7000ccac                __rt_init_libc_system_init
 .rti_fn.6      0x7000ccb0        0x4 build\kernel\components\finsh\shell.o
                0x7000ccb0                __rt_init_finsh_system_init
 .rti_fn.6.end  0x7000ccb4        0x4 build\kernel\src\components.o
                0x7000ccb4                __rt_init_rti_end
                0x7000ccb8                __rt_init_end = .

.vfp11_veneer   0x7000ccb8        0x0
 .vfp11_veneer  0x7000ccb8        0x0 linker stubs

.v4_bx          0x7000ccb8        0x0
 .v4_bx         0x7000ccb8        0x0 linker stubs

.iplt           0x7000ccb8        0x0
 .iplt          0x7000ccb8        0x0 build\applications\main.o

.ARM.extab
 *(.ARM.extab* .gnu.linkonce.armextab.*)

.ARM            0x7000ccb8        0x8
                0x7000ccb8                __exidx_start = .
 *(.ARM.exidx*)
 .ARM.exidx     0x7000ccb8        0x8 c:/users/yaxing.chen/downloads/env_released_1.2.0/env/tools/gnu_gcc/arm_gcc/mingw/bin/../lib/gcc/arm-none-eabi/5.4.1/armv7e-m/fpu/fpv5-d16\libgcc.a(_udivmoddi4.o)
                0x7000ccc0                __exidx_end = .

.rel.dyn        0x7000ccc0        0x0
 .rel.iplt      0x7000ccc0        0x0 build\applications\main.o

.ctors          0x7000ccc0        0x0
                [!provide]                PROVIDE (__ctors_start__, .)
 *crtbegin.o(.ctors)
 *crtbegin?.o(.ctors)
 *(EXCLUDE_FILE(*crtend.o *crtend?.o) .ctors)
 *(SORT(.ctors.*))
 *(.ctors)
                [!provide]                PROVIDE (__ctors_end__, .)

.dtors          0x7000ccc0        0x0
                [!provide]                PROVIDE (__dtors_start__, .)
 *crtbegin.o(.dtors)
 *crtbegin?.o(.dtors)
 *(EXCLUDE_FILE(*crtend.o *crtend?.o) .dtors)
 *(SORT(.dtors.*))
 *(.dtors)
                [!provide]                PROVIDE (__dtors_end__, .)

.preinit_array  0x7000ccc0        0x0
                [!provide]                PROVIDE (__preinit_array_start, .)
 *(.preinit_array*)
                [!provide]                PROVIDE (__preinit_array_end, .)

.init_array     0x7000ccc0        0x0
                [!provide]                PROVIDE (__init_array_start, .)
 *(SORT(.init_array.*))
 *(.init_array*)
                [!provide]                PROVIDE (__init_array_end, .)

.fini_array     0x7000ccc0        0x0
                [!provide]                PROVIDE (__fini_array_start, .)
 *(SORT(.fini_array.*))
 *(.fini_array*)
                [!provide]                PROVIDE (__fini_array_end, .)
                0x7000ccc0                __etext = .
                0x7000ccc0                __DATA_ROM = .

.data           0x20000000      0xcc0 load address 0x7000ccc0
                0x20000000                . = ALIGN (0x4)
                0x20000000                __DATA_RAM = .
                0x20000000                __data_start__ = .
 *(m_usb_dma_init_data)
 *(.data)
 *(.data*)
 .data.rt_object_container
                0x20000000       0xa0 build\kernel\src\object.o
 .data.SystemCoreClock
                0x200000a0        0x4 libraries\MIMXRT1064\MIMXRT1064\system_MIMXRT1064.o
                0x200000a0                SystemCoreClock
 .data.hdr_tab  0x200000a4      0x624 libraries\drivers\drv_gpio.o
 .data.uarts    0x200006c8       0x60 libraries\drivers\drv_uart.o
 .data.impure_data
                0x20000728      0x428 c:/users/yaxing.chen/downloads/env_released_1.2.0/env/tools/gnu_gcc/arm_gcc/mingw/bin/../lib/gcc/arm-none-eabi/5.4.1/../../../../arm-none-eabi/lib/armv7e-m/fpu/fpv5-d16\libc.a(lib_a-impure.o)
 .data._impure_ptr
                0x20000b50        0x4 c:/users/yaxing.chen/downloads/env_released_1.2.0/env/tools/gnu_gcc/arm_gcc/mingw/bin/../lib/gcc/arm-none-eabi/5.4.1/../../../../arm-none-eabi/lib/armv7e-m/fpu/fpv5-d16\libc.a(lib_a-impure.o)
                0x20000b50                _impure_ptr
 .data.__global_locale
                0x20000b54      0x16c c:/users/yaxing.chen/downloads/env_released_1.2.0/env/tools/gnu_gcc/arm_gcc/mingw/bin/../lib/gcc/arm-none-eabi/5.4.1/../../../../arm-none-eabi/lib/armv7e-m/fpu/fpv5-d16\libc.a(lib_a-locale.o)
                0x20000b54                __global_locale
 *(.jcr*)
                0x20000cc0                . = ALIGN (0x4)
                0x20000cc0                __data_end__ = .
                0x7000d980                __NDATA_ROM = (__DATA_ROM + (__data_end__ - __data_start__))

.igot.plt       0x20000cc0        0x0 load address 0x7000d980
 .igot.plt      0x20000cc0        0x0 build\applications\main.o

.ncache.init    0x81e00000        0x0 load address 0x7000d980
                0x81e00000                __noncachedata_start__ = .
 *(NonCacheable.init)
                0x81e00000                . = ALIGN (0x4)
                0x81e00000                __noncachedata_init_end__ = .
                0x81e00000                . = __noncachedata_init_end__

.ncache         0x81e00000        0x0
 *(NonCacheable)
                0x81e00000                . = ALIGN (0x4)
                0x81e00000                __noncachedata_end__ = .
                0x7000d980                __DATA_END = (__NDATA_ROM + (__noncachedata_init_end__ - __noncachedata_start__))
                0x70400000                text_end = (ORIGIN (m_text) + LENGTH (m_text))
                0x00000001                ASSERT ((__DATA_END <= text_end), region m_text overflowed with text and data)

.bss            0x20000cc0      0x504 load address 0x7000d980
                0x20000cc0                . = ALIGN (0x4)
                0x20000cc0                __START_BSS = .
                0x20000cc0                __bss_start__ = .
 *(m_usb_dma_noninit_data)
 *(.bss)
 *(.bss*)
 .bss.rt_tick   0x20000cc0        0x4 build\kernel\src\clock.o
 .bss.idle      0x20000cc4       0x80 build\kernel\src\idle.o
 .bss.rt_thread_stack
                0x20000d44      0x100 build\kernel\src\idle.o
 .bss.idle_hook_list
                0x20000e44       0x10 build\kernel\src\idle.o
 .bss.rt_interrupt_leave_hook
                0x20000e54        0x4 build\kernel\src\irq.o
 .bss.rt_interrupt_enter_hook
                0x20000e58        0x4 build\kernel\src\irq.o
 .bss.rt_interrupt_nest
                0x20000e5c        0x1 build\kernel\src\irq.o
                0x20000e5c                rt_interrupt_nest
 *fill*         0x20000e5d        0x3 
 .bss.__rt_errno
                0x20000e60        0x4 build\kernel\src\kservice.o
 .bss._console_device
                0x20000e64        0x4 build\kernel\src\kservice.o
 .bss.rt_log_buf.5982
                0x20000e68       0x80 build\kernel\src\kservice.o
 .bss._heap     0x20000ee8       0x64 build\kernel\src\memheap.o
 .bss.rt_object_attach_hook
                0x20000f4c        0x4 build\kernel\src\object.o
 .bss.rt_object_detach_hook
                0x20000f50        0x4 build\kernel\src\object.o
 .bss.rt_scheduler_lock_nest
                0x20000f54        0x2 build\kernel\src\scheduler.o
 *fill*         0x20000f56        0x2 
 .bss.rt_scheduler_hook
                0x20000f58        0x4 build\kernel\src\scheduler.o
 .bss.rt_thread_suspend_hook
                0x20000f5c        0x4 build\kernel\src\thread.o
 .bss.rt_thread_resume_hook
                0x20000f60        0x4 build\kernel\src\thread.o
 .bss.rt_thread_inited_hook
                0x20000f64        0x4 build\kernel\src\thread.o
 .bss.rt_timer_list
                0x20000f68        0x8 build\kernel\src\timer.o
 .bss.rt_timer_exit_hook
                0x20000f70        0x4 build\kernel\src\timer.o
 .bss.rt_timer_enter_hook
                0x20000f74        0x4 build\kernel\src\timer.o
 .bss.random_nr.5777
                0x20000f78        0x4 build\kernel\src\timer.o
 .bss.rt_exception_hook
                0x20000f7c        0x4 build\kernel\libcpu\arm\cortex-m7\cpuport.o
 .bss._hw_pin   0x20000f80       0x44 build\kernel\components\drivers\misc\pin.o
 .bss.already_output.6157
                0x20000fc4        0x4 build\kernel\components\drivers\serial\serial.o
 .bss._sysvar_table_begin
                0x20000fc8        0x4 build\kernel\components\finsh\shell.o
                0x20000fc8                _sysvar_table_begin
 .bss.finsh_prompt_custom
                0x20000fcc        0x4 build\kernel\components\finsh\shell.o
 .bss.finsh_prompt.7242
                0x20000fd0       0x81 build\kernel\components\finsh\shell.o
 *fill*         0x20001051        0x3 
 .bss._syscall_table_begin
                0x20001054        0x4 build\kernel\components\finsh\shell.o
                0x20001054                _syscall_table_begin
 .bss._sysvar_table_end
                0x20001058        0x4 build\kernel\components\finsh\shell.o
                0x20001058                _sysvar_table_end
 .bss._syscall_table_end
                0x2000105c        0x4 build\kernel\components\finsh\shell.o
                0x2000105c                _syscall_table_end
 .bss.s_lpuartIsr
                0x20001060        0x4 libraries\MIMXRT1064\MIMXRT1064\drivers\fsl_lpuart.o
 .bss.s_lpuartHandle
                0x20001064       0x24 libraries\MIMXRT1064\MIMXRT1064\drivers\fsl_lpuart.o
 *(COMMON)
 COMMON         0x20001088        0x4 build\kernel\src\kservice.o
                0x20001088                rt_assert_hook
 COMMON         0x2000108c        0xc build\kernel\src\object.o
                0x2000108c                rt_object_put_hook
                0x20001090                rt_object_take_hook
                0x20001094                rt_object_trytake_hook
 COMMON         0x20001098      0x114 build\kernel\src\scheduler.o
                0x20001098                rt_thread_priority_table
                0x20001198                rt_current_priority
                0x2000119c                rt_current_thread
                0x200011a0                rt_thread_ready_priority_group
                0x200011a4                rt_thread_defunct
 COMMON         0x200011ac        0xc build\kernel\libcpu\arm\cortex-m7\cpuport.o
                0x200011ac                rt_interrupt_to_thread
                0x200011b0                rt_interrupt_from_thread
                0x200011b4                rt_thread_switch_interrupt_flag
 COMMON         0x200011b8        0x4 build\kernel\components\finsh\shell.o
                0x200011b8                shell
 COMMON         0x200011bc        0x8 libraries\MIMXRT1064\MIMXRT1064\drivers\fsl_clock.o
                0x200011bc                g_xtalFreq
                0x200011c0                g_rtcXtalFreq
                0x200011c4                . = ALIGN (0x4)
                0x200011c4                __bss_end__ = .
                0x200011c4                __END_BSS = .

.stack          0x200011c4      0x404 load address 0x7000de84
                0x200011c8                . = ALIGN (0x8)
 *fill*         0x200011c4        0x4 
                0x200011c8                stack_start = .
                0x200015c8                . = (. + STACK_SIZE)
 *fill*         0x200011c8      0x400 
                0x200015c8                stack_end = .
                0x200015c8                __StackTop = .

.RTT_HEAP       0x200015c8        0x0
                0x200015c8                heap_start = .
                0x200015c8                . = ALIGN (0x8)
                0x20020000                PROVIDE (heap_end, (ORIGIN (m_dtcm) + LENGTH (m_dtcm)))

.ARM.attributes
                0x00000000       0x35
 *(.ARM.attributes)
 .ARM.attributes
                0x00000000       0x37 build\applications\main.o
 .ARM.attributes
                0x00000037       0x37 build\board\board.o
 .ARM.attributes
                0x0000006e       0x37 build\board\MCUX_Config\clock_config.o
 .ARM.attributes
                0x000000a5       0x37 build\board\MCUX_Config\pin_mux.o
 .ARM.attributes
                0x000000dc       0x37 build\xip\evkmimxrt1064_flexspi_nor_config.o
 .ARM.attributes
                0x00000113       0x37 build\xip\evkmimxrt1064_sdram_ini_dcd.o
 .ARM.attributes
                0x0000014a       0x37 build\xip\fsl_flexspi_nor_boot.o
 .ARM.attributes
                0x00000181       0x37 build\kernel\src\clock.o
 .ARM.attributes
                0x000001b8       0x37 build\kernel\src\components.o
 .ARM.attributes
                0x000001ef       0x37 build\kernel\src\device.o
 .ARM.attributes
                0x00000226       0x37 build\kernel\src\idle.o
 .ARM.attributes
                0x0000025d       0x37 build\kernel\src\ipc.o
 .ARM.attributes
                0x00000294       0x37 build\kernel\src\irq.o
 .ARM.attributes
                0x000002cb       0x37 build\kernel\src\kservice.o
 .ARM.attributes
                0x00000302       0x37 build\kernel\src\memheap.o
 .ARM.attributes
                0x00000339       0x37 build\kernel\src\object.o
 .ARM.attributes
                0x00000370       0x37 build\kernel\src\scheduler.o
 .ARM.attributes
                0x000003a7       0x37 build\kernel\src\thread.o
 .ARM.attributes
                0x000003de       0x37 build\kernel\src\timer.o
 .ARM.attributes
                0x00000415       0x37 build\kernel\libcpu\arm\cortex-m7\cpuport.o
 .ARM.attributes
                0x0000044c       0x23 build\kernel\libcpu\arm\cortex-m7\context_gcc.o
 .ARM.attributes
                0x0000046f       0x37 build\kernel\components\drivers\misc\pin.o
 .ARM.attributes
                0x000004a6       0x37 build\kernel\components\drivers\serial\serial.o
 .ARM.attributes
                0x000004dd       0x37 build\kernel\components\drivers\src\completion.o
 .ARM.attributes
                0x00000514       0x37 build\kernel\components\finsh\shell.o
 .ARM.attributes
                0x0000054b       0x37 build\kernel\components\finsh\cmd.o
 .ARM.attributes
                0x00000582       0x37 build\kernel\components\finsh\msh.o
 .ARM.attributes
                0x000005b9       0x37 build\kernel\components\libc\compilers\newlib\libc.o
 .ARM.attributes
                0x000005f0       0x37 build\kernel\components\libc\compilers\newlib\syscalls.o
 .ARM.attributes
                0x00000627       0x37 libraries\MIMXRT1064\MIMXRT1064\system_MIMXRT1064.o
 .ARM.attributes
                0x0000065e       0x37 libraries\MIMXRT1064\MIMXRT1064\drivers\fsl_clock.o
 .ARM.attributes
                0x00000695       0x1d libraries\MIMXRT1064\MIMXRT1064\gcc\startup_MIMXRT1064.o
 .ARM.attributes
                0x000006b2       0x37 libraries\MIMXRT1064\MIMXRT1064\drivers\fsl_gpio.o
 .ARM.attributes
                0x000006e9       0x37 libraries\MIMXRT1064\MIMXRT1064\drivers\fsl_lpuart.o
 .ARM.attributes
                0x00000720       0x37 libraries\drivers\drv_gpio.o
 .ARM.attributes
                0x00000757       0x37 libraries\drivers\drv_uart.o
 .ARM.attributes
                0x0000078e       0x32 c:/users/yaxing.chen/downloads/env_released_1.2.0/env/tools/gnu_gcc/arm_gcc/mingw/bin/../lib/gcc/arm-none-eabi/5.4.1/../../../../arm-none-eabi/lib/armv7e-m/fpu/fpv5-d16\libc.a(lib_a-assert.o)
 .ARM.attributes
                0x000007c0       0x32 c:/users/yaxing.chen/downloads/env_released_1.2.0/env/tools/gnu_gcc/arm_gcc/mingw/bin/../lib/gcc/arm-none-eabi/5.4.1/../../../../arm-none-eabi/lib/armv7e-m/fpu/fpv5-d16\libc.a(lib_a-fclose.o)
 .ARM.attributes
                0x000007f2       0x32 c:/users/yaxing.chen/downloads/env_released_1.2.0/env/tools/gnu_gcc/arm_gcc/mingw/bin/../lib/gcc/arm-none-eabi/5.4.1/../../../../arm-none-eabi/lib/armv7e-m/fpu/fpv5-d16\libc.a(lib_a-fflush.o)
 .ARM.attributes
                0x00000824       0x32 c:/users/yaxing.chen/downloads/env_released_1.2.0/env/tools/gnu_gcc/arm_gcc/mingw/bin/../lib/gcc/arm-none-eabi/5.4.1/../../../../arm-none-eabi/lib/armv7e-m/fpu/fpv5-d16\libc.a(lib_a-fileno.o)
 .ARM.attributes
                0x00000856       0x32 c:/users/yaxing.chen/downloads/env_released_1.2.0/env/tools/gnu_gcc/arm_gcc/mingw/bin/../lib/gcc/arm-none-eabi/5.4.1/../../../../arm-none-eabi/lib/armv7e-m/fpu/fpv5-d16\libc.a(lib_a-findfp.o)
 .ARM.attributes
                0x00000888       0x32 c:/users/yaxing.chen/downloads/env_released_1.2.0/env/tools/gnu_gcc/arm_gcc/mingw/bin/../lib/gcc/arm-none-eabi/5.4.1/../../../../arm-none-eabi/lib/armv7e-m/fpu/fpv5-d16\libc.a(lib_a-fiprintf.o)
 .ARM.attributes
                0x000008ba       0x32 c:/users/yaxing.chen/downloads/env_released_1.2.0/env/tools/gnu_gcc/arm_gcc/mingw/bin/../lib/gcc/arm-none-eabi/5.4.1/../../../../arm-none-eabi/lib/armv7e-m/fpu/fpv5-d16\libc.a(lib_a-fwalk.o)
 .ARM.attributes
                0x000008ec       0x32 c:/users/yaxing.chen/downloads/env_released_1.2.0/env/tools/gnu_gcc/arm_gcc/mingw/bin/../lib/gcc/arm-none-eabi/5.4.1/../../../../arm-none-eabi/lib/armv7e-m/fpu/fpv5-d16\libc.a(lib_a-impure.o)
 .ARM.attributes
                0x0000091e       0x32 c:/users/yaxing.chen/downloads/env_released_1.2.0/env/tools/gnu_gcc/arm_gcc/mingw/bin/../lib/gcc/arm-none-eabi/5.4.1/../../../../arm-none-eabi/lib/armv7e-m/fpu/fpv5-d16\libc.a(lib_a-makebuf.o)
 .ARM.attributes
                0x00000950       0x32 c:/users/yaxing.chen/downloads/env_released_1.2.0/env/tools/gnu_gcc/arm_gcc/mingw/bin/../lib/gcc/arm-none-eabi/5.4.1/../../../../arm-none-eabi/lib/armv7e-m/fpu/fpv5-d16\libc.a(lib_a-memcmp.o)
 .ARM.attributes
                0x00000982       0x1e c:/users/yaxing.chen/downloads/env_released_1.2.0/env/tools/gnu_gcc/arm_gcc/mingw/bin/../lib/gcc/arm-none-eabi/5.4.1/../../../../arm-none-eabi/lib/armv7e-m/fpu/fpv5-d16\libc.a(lib_a-memcpy.o)
 .ARM.attributes
                0x000009a0       0x32 c:/users/yaxing.chen/downloads/env_released_1.2.0/env/tools/gnu_gcc/arm_gcc/mingw/bin/../lib/gcc/arm-none-eabi/5.4.1/../../../../arm-none-eabi/lib/armv7e-m/fpu/fpv5-d16\libc.a(lib_a-memset.o)
 .ARM.attributes
                0x000009d2       0x32 c:/users/yaxing.chen/downloads/env_released_1.2.0/env/tools/gnu_gcc/arm_gcc/mingw/bin/../lib/gcc/arm-none-eabi/5.4.1/../../../../arm-none-eabi/lib/armv7e-m/fpu/fpv5-d16\libc.a(lib_a-stdio.o)
 .ARM.attributes
                0x00000a04       0x32 c:/users/yaxing.chen/downloads/env_released_1.2.0/env/tools/gnu_gcc/arm_gcc/mingw/bin/../lib/gcc/arm-none-eabi/5.4.1/../../../../arm-none-eabi/lib/armv7e-m/fpu/fpv5-d16\libc.a(lib_a-strcat.o)
 .ARM.attributes
                0x00000a36       0x32 c:/users/yaxing.chen/downloads/env_released_1.2.0/env/tools/gnu_gcc/arm_gcc/mingw/bin/../lib/gcc/arm-none-eabi/5.4.1/../../../../arm-none-eabi/lib/armv7e-m/fpu/fpv5-d16\libc.a(lib_a-strcpy.o)
 .ARM.attributes
                0x00000a68       0x1e c:/users/yaxing.chen/downloads/env_released_1.2.0/env/tools/gnu_gcc/arm_gcc/mingw/bin/../lib/gcc/arm-none-eabi/5.4.1/../../../../arm-none-eabi/lib/armv7e-m/fpu/fpv5-d16\libc.a(lib_a-strlen.o)
 .ARM.attributes
                0x00000a86       0x32 c:/users/yaxing.chen/downloads/env_released_1.2.0/env/tools/gnu_gcc/arm_gcc/mingw/bin/../lib/gcc/arm-none-eabi/5.4.1/../../../../arm-none-eabi/lib/armv7e-m/fpu/fpv5-d16\libc.a(lib_a-strncmp.o)
 .ARM.attributes
                0x00000ab8       0x32 c:/users/yaxing.chen/downloads/env_released_1.2.0/env/tools/gnu_gcc/arm_gcc/mingw/bin/../lib/gcc/arm-none-eabi/5.4.1/../../../../arm-none-eabi/lib/armv7e-m/fpu/fpv5-d16\libc.a(lib_a-strncpy.o)
 .ARM.attributes
                0x00000aea       0x32 c:/users/yaxing.chen/downloads/env_released_1.2.0/env/tools/gnu_gcc/arm_gcc/mingw/bin/../lib/gcc/arm-none-eabi/5.4.1/../../../../arm-none-eabi/lib/armv7e-m/fpu/fpv5-d16\libc.a(lib_a-vfiprintf.o)
 .ARM.attributes
                0x00000b1c       0x32 c:/users/yaxing.chen/downloads/env_released_1.2.0/env/tools/gnu_gcc/arm_gcc/mingw/bin/../lib/gcc/arm-none-eabi/5.4.1/../../../../arm-none-eabi/lib/armv7e-m/fpu/fpv5-d16\libc.a(lib_a-wsetup.o)
 .ARM.attributes
                0x00000b4e       0x32 c:/users/yaxing.chen/downloads/env_released_1.2.0/env/tools/gnu_gcc/arm_gcc/mingw/bin/../lib/gcc/arm-none-eabi/5.4.1/../../../../arm-none-eabi/lib/armv7e-m/fpu/fpv5-d16\libc.a(lib_a-fputwc.o)
 .ARM.attributes
                0x00000b80       0x32 c:/users/yaxing.chen/downloads/env_released_1.2.0/env/tools/gnu_gcc/arm_gcc/mingw/bin/../lib/gcc/arm-none-eabi/5.4.1/../../../../arm-none-eabi/lib/armv7e-m/fpu/fpv5-d16\libc.a(lib_a-fvwrite.o)
 .ARM.attributes
                0x00000bb2       0x32 c:/users/yaxing.chen/downloads/env_released_1.2.0/env/tools/gnu_gcc/arm_gcc/mingw/bin/../lib/gcc/arm-none-eabi/5.4.1/../../../../arm-none-eabi/lib/armv7e-m/fpu/fpv5-d16\libc.a(lib_a-locale.o)
 .ARM.attributes
                0x00000be4       0x32 c:/users/yaxing.chen/downloads/env_released_1.2.0/env/tools/gnu_gcc/arm_gcc/mingw/bin/../lib/gcc/arm-none-eabi/5.4.1/../../../../arm-none-eabi/lib/armv7e-m/fpu/fpv5-d16\libc.a(lib_a-mbtowc_r.o)
 .ARM.attributes
                0x00000c16       0x1e c:/users/yaxing.chen/downloads/env_released_1.2.0/env/tools/gnu_gcc/arm_gcc/mingw/bin/../lib/gcc/arm-none-eabi/5.4.1/../../../../arm-none-eabi/lib/armv7e-m/fpu/fpv5-d16\libc.a(lib_a-memchr.o)
 .ARM.attributes
                0x00000c34       0x32 c:/users/yaxing.chen/downloads/env_released_1.2.0/env/tools/gnu_gcc/arm_gcc/mingw/bin/../lib/gcc/arm-none-eabi/5.4.1/../../../../arm-none-eabi/lib/armv7e-m/fpu/fpv5-d16\libc.a(lib_a-memmove.o)
 .ARM.attributes
                0x00000c66       0x32 c:/users/yaxing.chen/downloads/env_released_1.2.0/env/tools/gnu_gcc/arm_gcc/mingw/bin/../lib/gcc/arm-none-eabi/5.4.1/../../../../arm-none-eabi/lib/armv7e-m/fpu/fpv5-d16\libc.a(lib_a-wbuf.o)
 .ARM.attributes
                0x00000c98       0x32 c:/users/yaxing.chen/downloads/env_released_1.2.0/env/tools/gnu_gcc/arm_gcc/mingw/bin/../lib/gcc/arm-none-eabi/5.4.1/../../../../arm-none-eabi/lib/armv7e-m/fpu/fpv5-d16\libc.a(lib_a-wcrtomb.o)
 .ARM.attributes
                0x00000cca       0x32 c:/users/yaxing.chen/downloads/env_released_1.2.0/env/tools/gnu_gcc/arm_gcc/mingw/bin/../lib/gcc/arm-none-eabi/5.4.1/../../../../arm-none-eabi/lib/armv7e-m/fpu/fpv5-d16\libc.a(lib_a-wctomb_r.o)
 .ARM.attributes
                0x00000cfc       0x32 c:/users/yaxing.chen/downloads/env_released_1.2.0/env/tools/gnu_gcc/arm_gcc/mingw/bin/../lib/gcc/arm-none-eabi/5.4.1/../../../../arm-none-eabi/lib/armv7e-m/fpu/fpv5-d16\libc.a(lib_a-ctype_.o)
 .ARM.attributes
                0x00000d2e       0x20 c:/users/yaxing.chen/downloads/env_released_1.2.0/env/tools/gnu_gcc/arm_gcc/mingw/bin/../lib/gcc/arm-none-eabi/5.4.1/armv7e-m/fpu/fpv5-d16\libgcc.a(_aeabi_uldivmod.o)
 .ARM.attributes
                0x00000d4e       0x32 c:/users/yaxing.chen/downloads/env_released_1.2.0/env/tools/gnu_gcc/arm_gcc/mingw/bin/../lib/gcc/arm-none-eabi/5.4.1/armv7e-m/fpu/fpv5-d16\libgcc.a(_udivmoddi4.o)
 .ARM.attributes
                0x00000d80       0x20 c:/users/yaxing.chen/downloads/env_released_1.2.0/env/tools/gnu_gcc/arm_gcc/mingw/bin/../lib/gcc/arm-none-eabi/5.4.1/armv7e-m/fpu/fpv5-d16\libgcc.a(_dvmd_tls.o)
OUTPUT(rtthread.elf elf32-littlearm)

.comment        0x00000000       0x6e
 .comment       0x00000000       0x6e build\applications\main.o
                                 0x6f (size before relaxing)
 .comment       0x0000006e       0x6f build\board\board.o
 .comment       0x0000006e       0x6f build\board\MCUX_Config\clock_config.o
 .comment       0x0000006e       0x6f build\board\MCUX_Config\pin_mux.o
 .comment       0x0000006e       0x6f build\xip\evkmimxrt1064_flexspi_nor_config.o
 .comment       0x0000006e       0x6f build\xip\evkmimxrt1064_sdram_ini_dcd.o
 .comment       0x0000006e       0x6f build\xip\fsl_flexspi_nor_boot.o
 .comment       0x0000006e       0x6f build\kernel\src\clock.o
 .comment       0x0000006e       0x6f build\kernel\src\components.o
 .comment       0x0000006e       0x6f build\kernel\src\device.o
 .comment       0x0000006e       0x6f build\kernel\src\idle.o
 .comment       0x0000006e       0x6f build\kernel\src\ipc.o
 .comment       0x0000006e       0x6f build\kernel\src\irq.o
 .comment       0x0000006e       0x6f build\kernel\src\kservice.o
 .comment       0x0000006e       0x6f build\kernel\src\memheap.o
 .comment       0x0000006e       0x6f build\kernel\src\object.o
 .comment       0x0000006e       0x6f build\kernel\src\scheduler.o
 .comment       0x0000006e       0x6f build\kernel\src\thread.o
 .comment       0x0000006e       0x6f build\kernel\src\timer.o
 .comment       0x0000006e       0x6f build\kernel\libcpu\arm\cortex-m7\cpuport.o
 .comment       0x0000006e       0x6f build\kernel\components\drivers\misc\pin.o
 .comment       0x0000006e       0x6f build\kernel\components\drivers\serial\serial.o
 .comment       0x0000006e       0x6f build\kernel\components\drivers\src\completion.o
 .comment       0x0000006e       0x6f build\kernel\components\finsh\shell.o
 .comment       0x0000006e       0x6f build\kernel\components\finsh\cmd.o
 .comment       0x0000006e       0x6f build\kernel\components\finsh\msh.o
 .comment       0x0000006e       0x6f build\kernel\components\libc\compilers\newlib\libc.o
 .comment       0x0000006e       0x6f build\kernel\components\libc\compilers\newlib\syscalls.o
 .comment       0x0000006e       0x6f libraries\MIMXRT1064\MIMXRT1064\system_MIMXRT1064.o
 .comment       0x0000006e       0x6f libraries\MIMXRT1064\MIMXRT1064\drivers\fsl_clock.o
 .comment       0x0000006e       0x6f libraries\MIMXRT1064\MIMXRT1064\drivers\fsl_gpio.o
 .comment       0x0000006e       0x6f libraries\MIMXRT1064\MIMXRT1064\drivers\fsl_lpuart.o
 .comment       0x0000006e       0x6f libraries\drivers\drv_gpio.o
 .comment       0x0000006e       0x6f libraries\drivers\drv_uart.o

.debug_frame    0x00000000      0x950
 .debug_frame   0x00000000       0x40 c:/users/yaxing.chen/downloads/env_released_1.2.0/env/tools/gnu_gcc/arm_gcc/mingw/bin/../lib/gcc/arm-none-eabi/5.4.1/../../../../arm-none-eabi/lib/armv7e-m/fpu/fpv5-d16\libc.a(lib_a-assert.o)
 .debug_frame   0x00000040       0x44 c:/users/yaxing.chen/downloads/env_released_1.2.0/env/tools/gnu_gcc/arm_gcc/mingw/bin/../lib/gcc/arm-none-eabi/5.4.1/../../../../arm-none-eabi/lib/armv7e-m/fpu/fpv5-d16\libc.a(lib_a-fclose.o)
 .debug_frame   0x00000084       0x6c c:/users/yaxing.chen/downloads/env_released_1.2.0/env/tools/gnu_gcc/arm_gcc/mingw/bin/../lib/gcc/arm-none-eabi/5.4.1/../../../../arm-none-eabi/lib/armv7e-m/fpu/fpv5-d16\libc.a(lib_a-fflush.o)
 .debug_frame   0x000000f0       0x2c c:/users/yaxing.chen/downloads/env_released_1.2.0/env/tools/gnu_gcc/arm_gcc/mingw/bin/../lib/gcc/arm-none-eabi/5.4.1/../../../../arm-none-eabi/lib/armv7e-m/fpu/fpv5-d16\libc.a(lib_a-fileno.o)
 .debug_frame   0x0000011c      0x124 c:/users/yaxing.chen/downloads/env_released_1.2.0/env/tools/gnu_gcc/arm_gcc/mingw/bin/../lib/gcc/arm-none-eabi/5.4.1/../../../../arm-none-eabi/lib/armv7e-m/fpu/fpv5-d16\libc.a(lib_a-findfp.o)
 .debug_frame   0x00000240       0x70 c:/users/yaxing.chen/downloads/env_released_1.2.0/env/tools/gnu_gcc/arm_gcc/mingw/bin/../lib/gcc/arm-none-eabi/5.4.1/../../../../arm-none-eabi/lib/armv7e-m/fpu/fpv5-d16\libc.a(lib_a-fiprintf.o)
 .debug_frame   0x000002b0       0x54 c:/users/yaxing.chen/downloads/env_released_1.2.0/env/tools/gnu_gcc/arm_gcc/mingw/bin/../lib/gcc/arm-none-eabi/5.4.1/../../../../arm-none-eabi/lib/armv7e-m/fpu/fpv5-d16\libc.a(lib_a-fwalk.o)
 .debug_frame   0x00000304       0x68 c:/users/yaxing.chen/downloads/env_released_1.2.0/env/tools/gnu_gcc/arm_gcc/mingw/bin/../lib/gcc/arm-none-eabi/5.4.1/../../../../arm-none-eabi/lib/armv7e-m/fpu/fpv5-d16\libc.a(lib_a-makebuf.o)
 .debug_frame   0x0000036c       0x38 c:/users/yaxing.chen/downloads/env_released_1.2.0/env/tools/gnu_gcc/arm_gcc/mingw/bin/../lib/gcc/arm-none-eabi/5.4.1/../../../../arm-none-eabi/lib/armv7e-m/fpu/fpv5-d16\libc.a(lib_a-memcmp.o)
 .debug_frame   0x000003a4       0x34 c:/users/yaxing.chen/downloads/env_released_1.2.0/env/tools/gnu_gcc/arm_gcc/mingw/bin/../lib/gcc/arm-none-eabi/5.4.1/../../../../arm-none-eabi/lib/armv7e-m/fpu/fpv5-d16\libc.a(lib_a-memset.o)
 .debug_frame   0x000003d8       0x88 c:/users/yaxing.chen/downloads/env_released_1.2.0/env/tools/gnu_gcc/arm_gcc/mingw/bin/../lib/gcc/arm-none-eabi/5.4.1/../../../../arm-none-eabi/lib/armv7e-m/fpu/fpv5-d16\libc.a(lib_a-stdio.o)
 .debug_frame   0x00000460       0x28 c:/users/yaxing.chen/downloads/env_released_1.2.0/env/tools/gnu_gcc/arm_gcc/mingw/bin/../lib/gcc/arm-none-eabi/5.4.1/../../../../arm-none-eabi/lib/armv7e-m/fpu/fpv5-d16\libc.a(lib_a-strcat.o)
 .debug_frame   0x00000488       0x20 c:/users/yaxing.chen/downloads/env_released_1.2.0/env/tools/gnu_gcc/arm_gcc/mingw/bin/../lib/gcc/arm-none-eabi/5.4.1/../../../../arm-none-eabi/lib/armv7e-m/fpu/fpv5-d16\libc.a(lib_a-strcpy.o)
 .debug_frame   0x000004a8       0x54 c:/users/yaxing.chen/downloads/env_released_1.2.0/env/tools/gnu_gcc/arm_gcc/mingw/bin/../lib/gcc/arm-none-eabi/5.4.1/../../../../arm-none-eabi/lib/armv7e-m/fpu/fpv5-d16\libc.a(lib_a-strncmp.o)
 .debug_frame   0x000004fc       0x34 c:/users/yaxing.chen/downloads/env_released_1.2.0/env/tools/gnu_gcc/arm_gcc/mingw/bin/../lib/gcc/arm-none-eabi/5.4.1/../../../../arm-none-eabi/lib/armv7e-m/fpu/fpv5-d16\libc.a(lib_a-strncpy.o)
 .debug_frame   0x00000530       0xc8 c:/users/yaxing.chen/downloads/env_released_1.2.0/env/tools/gnu_gcc/arm_gcc/mingw/bin/../lib/gcc/arm-none-eabi/5.4.1/../../../../arm-none-eabi/lib/armv7e-m/fpu/fpv5-d16\libc.a(lib_a-vfiprintf.o)
 .debug_frame   0x000005f8       0x2c c:/users/yaxing.chen/downloads/env_released_1.2.0/env/tools/gnu_gcc/arm_gcc/mingw/bin/../lib/gcc/arm-none-eabi/5.4.1/../../../../arm-none-eabi/lib/armv7e-m/fpu/fpv5-d16\libc.a(lib_a-wsetup.o)
 .debug_frame   0x00000624       0x8c c:/users/yaxing.chen/downloads/env_released_1.2.0/env/tools/gnu_gcc/arm_gcc/mingw/bin/../lib/gcc/arm-none-eabi/5.4.1/../../../../arm-none-eabi/lib/armv7e-m/fpu/fpv5-d16\libc.a(lib_a-fputwc.o)
 .debug_frame   0x000006b0       0x68 c:/users/yaxing.chen/downloads/env_released_1.2.0/env/tools/gnu_gcc/arm_gcc/mingw/bin/../lib/gcc/arm-none-eabi/5.4.1/../../../../arm-none-eabi/lib/armv7e-m/fpu/fpv5-d16\libc.a(lib_a-fvwrite.o)
 .debug_frame   0x00000718       0x84 c:/users/yaxing.chen/downloads/env_released_1.2.0/env/tools/gnu_gcc/arm_gcc/mingw/bin/../lib/gcc/arm-none-eabi/5.4.1/../../../../arm-none-eabi/lib/armv7e-m/fpu/fpv5-d16\libc.a(lib_a-locale.o)
 .debug_frame   0x0000079c       0x4c c:/users/yaxing.chen/downloads/env_released_1.2.0/env/tools/gnu_gcc/arm_gcc/mingw/bin/../lib/gcc/arm-none-eabi/5.4.1/../../../../arm-none-eabi/lib/armv7e-m/fpu/fpv5-d16\libc.a(lib_a-mbtowc_r.o)
 .debug_frame   0x000007e8       0x30 c:/users/yaxing.chen/downloads/env_released_1.2.0/env/tools/gnu_gcc/arm_gcc/mingw/bin/../lib/gcc/arm-none-eabi/5.4.1/../../../../arm-none-eabi/lib/armv7e-m/fpu/fpv5-d16\libc.a(lib_a-memmove.o)
 .debug_frame   0x00000818       0x40 c:/users/yaxing.chen/downloads/env_released_1.2.0/env/tools/gnu_gcc/arm_gcc/mingw/bin/../lib/gcc/arm-none-eabi/5.4.1/../../../../arm-none-eabi/lib/armv7e-m/fpu/fpv5-d16\libc.a(lib_a-wbuf.o)
 .debug_frame   0x00000858       0x5c c:/users/yaxing.chen/downloads/env_released_1.2.0/env/tools/gnu_gcc/arm_gcc/mingw/bin/../lib/gcc/arm-none-eabi/5.4.1/../../../../arm-none-eabi/lib/armv7e-m/fpu/fpv5-d16\libc.a(lib_a-wcrtomb.o)
 .debug_frame   0x000008b4       0x3c c:/users/yaxing.chen/downloads/env_released_1.2.0/env/tools/gnu_gcc/arm_gcc/mingw/bin/../lib/gcc/arm-none-eabi/5.4.1/../../../../arm-none-eabi/lib/armv7e-m/fpu/fpv5-d16\libc.a(lib_a-wctomb_r.o)
 .debug_frame   0x000008f0       0x2c c:/users/yaxing.chen/downloads/env_released_1.2.0/env/tools/gnu_gcc/arm_gcc/mingw/bin/../lib/gcc/arm-none-eabi/5.4.1/armv7e-m/fpu/fpv5-d16\libgcc.a(_aeabi_uldivmod.o)
 .debug_frame   0x0000091c       0x34 c:/users/yaxing.chen/downloads/env_released_1.2.0/env/tools/gnu_gcc/arm_gcc/mingw/bin/../lib/gcc/arm-none-eabi/5.4.1/armv7e-m/fpu/fpv5-d16\libgcc.a(_udivmoddi4.o)

Cross Reference Table

Symbol                                            File
ACMP1_IRQHandler                                  libraries\MIMXRT1064\MIMXRT1064\gcc\startup_MIMXRT1064.o
ACMP2_IRQHandler                                  libraries\MIMXRT1064\MIMXRT1064\gcc\startup_MIMXRT1064.o
ACMP3_IRQHandler                                  libraries\MIMXRT1064\MIMXRT1064\gcc\startup_MIMXRT1064.o
ACMP4_IRQHandler                                  libraries\MIMXRT1064\MIMXRT1064\gcc\startup_MIMXRT1064.o
ADC1_IRQHandler                                   libraries\MIMXRT1064\MIMXRT1064\gcc\startup_MIMXRT1064.o
ADC2_IRQHandler                                   libraries\MIMXRT1064\MIMXRT1064\gcc\startup_MIMXRT1064.o
ADC_ETC_ERROR_IRQ_IRQHandler                      libraries\MIMXRT1064\MIMXRT1064\gcc\startup_MIMXRT1064.o
ADC_ETC_IRQ0_IRQHandler                           libraries\MIMXRT1064\MIMXRT1064\gcc\startup_MIMXRT1064.o
ADC_ETC_IRQ1_IRQHandler                           libraries\MIMXRT1064\MIMXRT1064\gcc\startup_MIMXRT1064.o
ADC_ETC_IRQ2_IRQHandler                           libraries\MIMXRT1064\MIMXRT1064\gcc\startup_MIMXRT1064.o
BEE_IRQHandler                                    libraries\MIMXRT1064\MIMXRT1064\gcc\startup_MIMXRT1064.o
BOARD_BootClockRUN                                build\board\MCUX_Config\clock_config.o
                                                  build\board\board.o
BOARD_InitBootClocks                              build\board\MCUX_Config\clock_config.o
BOARD_InitBootPins                                build\board\MCUX_Config\pin_mux.o
BOARD_InitPins                                    build\board\MCUX_Config\pin_mux.o
                                                  build\board\board.o
BusFault_Handler                                  libraries\MIMXRT1064\MIMXRT1064\gcc\startup_MIMXRT1064.o
CAN1_DriverIRQHandler                             libraries\MIMXRT1064\MIMXRT1064\gcc\startup_MIMXRT1064.o
CAN1_IRQHandler                                   libraries\MIMXRT1064\MIMXRT1064\gcc\startup_MIMXRT1064.o
CAN2_DriverIRQHandler                             libraries\MIMXRT1064\MIMXRT1064\gcc\startup_MIMXRT1064.o
CAN2_IRQHandler                                   libraries\MIMXRT1064\MIMXRT1064\gcc\startup_MIMXRT1064.o
CAN3_DriverIRQHandler                             libraries\MIMXRT1064\MIMXRT1064\gcc\startup_MIMXRT1064.o
CAN3_IRQHandler                                   libraries\MIMXRT1064\MIMXRT1064\gcc\startup_MIMXRT1064.o
CCM_1_IRQHandler                                  libraries\MIMXRT1064\MIMXRT1064\gcc\startup_MIMXRT1064.o
CCM_2_IRQHandler                                  libraries\MIMXRT1064\MIMXRT1064\gcc\startup_MIMXRT1064.o
CLOCK_DeinitArmPll                                libraries\MIMXRT1064\MIMXRT1064\drivers\fsl_clock.o
CLOCK_DeinitAudioPll                              libraries\MIMXRT1064\MIMXRT1064\drivers\fsl_clock.o
                                                  build\board\MCUX_Config\clock_config.o
CLOCK_DeinitEnetPll                               libraries\MIMXRT1064\MIMXRT1064\drivers\fsl_clock.o
                                                  build\board\MCUX_Config\clock_config.o
CLOCK_DeinitExternalClk                           libraries\MIMXRT1064\MIMXRT1064\drivers\fsl_clock.o
CLOCK_DeinitRcOsc24M                              libraries\MIMXRT1064\MIMXRT1064\drivers\fsl_clock.o
CLOCK_DeinitSysPfd                                libraries\MIMXRT1064\MIMXRT1064\drivers\fsl_clock.o
CLOCK_DeinitSysPll                                libraries\MIMXRT1064\MIMXRT1064\drivers\fsl_clock.o
CLOCK_DeinitUsb1Pfd                               libraries\MIMXRT1064\MIMXRT1064\drivers\fsl_clock.o
CLOCK_DeinitUsb1Pll                               libraries\MIMXRT1064\MIMXRT1064\drivers\fsl_clock.o
CLOCK_DeinitUsb2Pll                               libraries\MIMXRT1064\MIMXRT1064\drivers\fsl_clock.o
                                                  build\board\MCUX_Config\clock_config.o
CLOCK_DeinitVideoPll                              libraries\MIMXRT1064\MIMXRT1064\drivers\fsl_clock.o
                                                  build\board\MCUX_Config\clock_config.o
CLOCK_DisableUsbhs0PhyPllClock                    libraries\MIMXRT1064\MIMXRT1064\drivers\fsl_clock.o
CLOCK_DisableUsbhs1PhyPllClock                    libraries\MIMXRT1064\MIMXRT1064\drivers\fsl_clock.o
CLOCK_EnableUsbhs0Clock                           libraries\MIMXRT1064\MIMXRT1064\drivers\fsl_clock.o
CLOCK_EnableUsbhs0PhyPllClock                     libraries\MIMXRT1064\MIMXRT1064\drivers\fsl_clock.o
CLOCK_EnableUsbhs1Clock                           libraries\MIMXRT1064\MIMXRT1064\drivers\fsl_clock.o
CLOCK_EnableUsbhs1PhyPllClock                     libraries\MIMXRT1064\MIMXRT1064\drivers\fsl_clock.o
CLOCK_GetAhbFreq                                  libraries\MIMXRT1064\MIMXRT1064\drivers\fsl_clock.o
CLOCK_GetFreq                                     libraries\MIMXRT1064\MIMXRT1064\drivers\fsl_clock.o
CLOCK_GetIpgFreq                                  libraries\MIMXRT1064\MIMXRT1064\drivers\fsl_clock.o
CLOCK_GetPerClkFreq                               libraries\MIMXRT1064\MIMXRT1064\drivers\fsl_clock.o
CLOCK_GetPllFreq                                  libraries\MIMXRT1064\MIMXRT1064\drivers\fsl_clock.o
                                                  libraries\drivers\drv_uart.o
CLOCK_GetSemcFreq                                 libraries\MIMXRT1064\MIMXRT1064\drivers\fsl_clock.o
CLOCK_GetSysPfdFreq                               libraries\MIMXRT1064\MIMXRT1064\drivers\fsl_clock.o
CLOCK_GetUsb1PfdFreq                              libraries\MIMXRT1064\MIMXRT1064\drivers\fsl_clock.o
CLOCK_InitArmPll                                  libraries\MIMXRT1064\MIMXRT1064\drivers\fsl_clock.o
                                                  build\board\MCUX_Config\clock_config.o
CLOCK_InitAudioPll                                libraries\MIMXRT1064\MIMXRT1064\drivers\fsl_clock.o
CLOCK_InitEnetPll                                 libraries\MIMXRT1064\MIMXRT1064\drivers\fsl_clock.o
CLOCK_InitExternalClk                             libraries\MIMXRT1064\MIMXRT1064\drivers\fsl_clock.o
                                                  build\board\MCUX_Config\clock_config.o
CLOCK_InitRcOsc24M                                libraries\MIMXRT1064\MIMXRT1064\drivers\fsl_clock.o
                                                  build\board\MCUX_Config\clock_config.o
CLOCK_InitSysPfd                                  libraries\MIMXRT1064\MIMXRT1064\drivers\fsl_clock.o
CLOCK_InitSysPll                                  libraries\MIMXRT1064\MIMXRT1064\drivers\fsl_clock.o
CLOCK_InitUsb1Pfd                                 libraries\MIMXRT1064\MIMXRT1064\drivers\fsl_clock.o
CLOCK_InitUsb1Pll                                 libraries\MIMXRT1064\MIMXRT1064\drivers\fsl_clock.o
CLOCK_InitUsb2Pll                                 libraries\MIMXRT1064\MIMXRT1064\drivers\fsl_clock.o
CLOCK_InitVideoPll                                libraries\MIMXRT1064\MIMXRT1064\drivers\fsl_clock.o
CLOCK_SwitchOsc                                   libraries\MIMXRT1064\MIMXRT1064\drivers\fsl_clock.o
                                                  build\board\MCUX_Config\clock_config.o
CORE_IRQHandler                                   libraries\MIMXRT1064\MIMXRT1064\gcc\startup_MIMXRT1064.o
CSI_IRQHandler                                    libraries\MIMXRT1064\MIMXRT1064\gcc\startup_MIMXRT1064.o
CSU_IRQHandler                                    libraries\MIMXRT1064\MIMXRT1064\gcc\startup_MIMXRT1064.o
CTI0_ERROR_IRQHandler                             libraries\MIMXRT1064\MIMXRT1064\gcc\startup_MIMXRT1064.o
CTI1_ERROR_IRQHandler                             libraries\MIMXRT1064\MIMXRT1064\gcc\startup_MIMXRT1064.o
DCACHE_CleanByRange                               libraries\MIMXRT1064\MIMXRT1064\drivers\fsl_cache.o
DCACHE_CleanInvalidateByRange                     libraries\MIMXRT1064\MIMXRT1064\drivers\fsl_cache.o
DCACHE_InvalidateByRange                          libraries\MIMXRT1064\MIMXRT1064\drivers\fsl_cache.o
DCDC_IRQHandler                                   libraries\MIMXRT1064\MIMXRT1064\gcc\startup_MIMXRT1064.o
DCP_IRQHandler                                    libraries\MIMXRT1064\MIMXRT1064\gcc\startup_MIMXRT1064.o
DCP_VMI_IRQHandler                                libraries\MIMXRT1064\MIMXRT1064\gcc\startup_MIMXRT1064.o
DMA0_DMA16_DriverIRQHandler                       libraries\MIMXRT1064\MIMXRT1064\gcc\startup_MIMXRT1064.o
DMA0_DMA16_IRQHandler                             libraries\MIMXRT1064\MIMXRT1064\gcc\startup_MIMXRT1064.o
DMA10_DMA26_DriverIRQHandler                      libraries\MIMXRT1064\MIMXRT1064\gcc\startup_MIMXRT1064.o
DMA10_DMA26_IRQHandler                            libraries\MIMXRT1064\MIMXRT1064\gcc\startup_MIMXRT1064.o
DMA11_DMA27_DriverIRQHandler                      libraries\MIMXRT1064\MIMXRT1064\gcc\startup_MIMXRT1064.o
DMA11_DMA27_IRQHandler                            libraries\MIMXRT1064\MIMXRT1064\gcc\startup_MIMXRT1064.o
DMA12_DMA28_DriverIRQHandler                      libraries\MIMXRT1064\MIMXRT1064\gcc\startup_MIMXRT1064.o
DMA12_DMA28_IRQHandler                            libraries\MIMXRT1064\MIMXRT1064\gcc\startup_MIMXRT1064.o
DMA13_DMA29_DriverIRQHandler                      libraries\MIMXRT1064\MIMXRT1064\gcc\startup_MIMXRT1064.o
DMA13_DMA29_IRQHandler                            libraries\MIMXRT1064\MIMXRT1064\gcc\startup_MIMXRT1064.o
DMA14_DMA30_DriverIRQHandler                      libraries\MIMXRT1064\MIMXRT1064\gcc\startup_MIMXRT1064.o
DMA14_DMA30_IRQHandler                            libraries\MIMXRT1064\MIMXRT1064\gcc\startup_MIMXRT1064.o
DMA15_DMA31_DriverIRQHandler                      libraries\MIMXRT1064\MIMXRT1064\gcc\startup_MIMXRT1064.o
DMA15_DMA31_IRQHandler                            libraries\MIMXRT1064\MIMXRT1064\gcc\startup_MIMXRT1064.o
DMA1_DMA17_DriverIRQHandler                       libraries\MIMXRT1064\MIMXRT1064\gcc\startup_MIMXRT1064.o
DMA1_DMA17_IRQHandler                             libraries\MIMXRT1064\MIMXRT1064\gcc\startup_MIMXRT1064.o
DMA2_DMA18_DriverIRQHandler                       libraries\MIMXRT1064\MIMXRT1064\gcc\startup_MIMXRT1064.o
DMA2_DMA18_IRQHandler                             libraries\MIMXRT1064\MIMXRT1064\gcc\startup_MIMXRT1064.o
DMA3_DMA19_DriverIRQHandler                       libraries\MIMXRT1064\MIMXRT1064\gcc\startup_MIMXRT1064.o
DMA3_DMA19_IRQHandler                             libraries\MIMXRT1064\MIMXRT1064\gcc\startup_MIMXRT1064.o
DMA4_DMA20_DriverIRQHandler                       libraries\MIMXRT1064\MIMXRT1064\gcc\startup_MIMXRT1064.o
DMA4_DMA20_IRQHandler                             libraries\MIMXRT1064\MIMXRT1064\gcc\startup_MIMXRT1064.o
DMA5_DMA21_DriverIRQHandler                       libraries\MIMXRT1064\MIMXRT1064\gcc\startup_MIMXRT1064.o
DMA5_DMA21_IRQHandler                             libraries\MIMXRT1064\MIMXRT1064\gcc\startup_MIMXRT1064.o
DMA6_DMA22_DriverIRQHandler                       libraries\MIMXRT1064\MIMXRT1064\gcc\startup_MIMXRT1064.o
DMA6_DMA22_IRQHandler                             libraries\MIMXRT1064\MIMXRT1064\gcc\startup_MIMXRT1064.o
DMA7_DMA23_DriverIRQHandler                       libraries\MIMXRT1064\MIMXRT1064\gcc\startup_MIMXRT1064.o
DMA7_DMA23_IRQHandler                             libraries\MIMXRT1064\MIMXRT1064\gcc\startup_MIMXRT1064.o
DMA8_DMA24_DriverIRQHandler                       libraries\MIMXRT1064\MIMXRT1064\gcc\startup_MIMXRT1064.o
DMA8_DMA24_IRQHandler                             libraries\MIMXRT1064\MIMXRT1064\gcc\startup_MIMXRT1064.o
DMA9_DMA25_DriverIRQHandler                       libraries\MIMXRT1064\MIMXRT1064\gcc\startup_MIMXRT1064.o
DMA9_DMA25_IRQHandler                             libraries\MIMXRT1064\MIMXRT1064\gcc\startup_MIMXRT1064.o
DMA_ERROR_DriverIRQHandler                        libraries\MIMXRT1064\MIMXRT1064\gcc\startup_MIMXRT1064.o
DMA_ERROR_IRQHandler                              libraries\MIMXRT1064\MIMXRT1064\gcc\startup_MIMXRT1064.o
DebugMon_Handler                                  libraries\MIMXRT1064\MIMXRT1064\gcc\startup_MIMXRT1064.o
DefaultISR                                        libraries\MIMXRT1064\MIMXRT1064\gcc\startup_MIMXRT1064.o
ENC1_IRQHandler                                   libraries\MIMXRT1064\MIMXRT1064\gcc\startup_MIMXRT1064.o
ENC2_IRQHandler                                   libraries\MIMXRT1064\MIMXRT1064\gcc\startup_MIMXRT1064.o
ENC3_IRQHandler                                   libraries\MIMXRT1064\MIMXRT1064\gcc\startup_MIMXRT1064.o
ENC4_IRQHandler                                   libraries\MIMXRT1064\MIMXRT1064\gcc\startup_MIMXRT1064.o
ENET2_1588_Timer_DriverIRQHandler                 libraries\MIMXRT1064\MIMXRT1064\gcc\startup_MIMXRT1064.o
ENET2_1588_Timer_IRQHandler                       libraries\MIMXRT1064\MIMXRT1064\gcc\startup_MIMXRT1064.o
ENET2_DriverIRQHandler                            libraries\MIMXRT1064\MIMXRT1064\gcc\startup_MIMXRT1064.o
ENET2_IRQHandler                                  libraries\MIMXRT1064\MIMXRT1064\gcc\startup_MIMXRT1064.o
ENET_1588_Timer_DriverIRQHandler                  libraries\MIMXRT1064\MIMXRT1064\gcc\startup_MIMXRT1064.o
ENET_1588_Timer_IRQHandler                        libraries\MIMXRT1064\MIMXRT1064\gcc\startup_MIMXRT1064.o
ENET_DriverIRQHandler                             libraries\MIMXRT1064\MIMXRT1064\gcc\startup_MIMXRT1064.o
ENET_IRQHandler                                   libraries\MIMXRT1064\MIMXRT1064\gcc\startup_MIMXRT1064.o
EWM_IRQHandler                                    libraries\MIMXRT1064\MIMXRT1064\gcc\startup_MIMXRT1064.o
FLEXIO1_DriverIRQHandler                          libraries\MIMXRT1064\MIMXRT1064\gcc\startup_MIMXRT1064.o
FLEXIO1_IRQHandler                                libraries\MIMXRT1064\MIMXRT1064\gcc\startup_MIMXRT1064.o
FLEXIO2_DriverIRQHandler                          libraries\MIMXRT1064\MIMXRT1064\gcc\startup_MIMXRT1064.o
FLEXIO2_IRQHandler                                libraries\MIMXRT1064\MIMXRT1064\gcc\startup_MIMXRT1064.o
FLEXIO3_DriverIRQHandler                          libraries\MIMXRT1064\MIMXRT1064\gcc\startup_MIMXRT1064.o
FLEXIO3_IRQHandler                                libraries\MIMXRT1064\MIMXRT1064\gcc\startup_MIMXRT1064.o
FLEXRAM_IRQHandler                                libraries\MIMXRT1064\MIMXRT1064\gcc\startup_MIMXRT1064.o
FLEXSPI2_DriverIRQHandler                         libraries\MIMXRT1064\MIMXRT1064\gcc\startup_MIMXRT1064.o
FLEXSPI2_IRQHandler                               libraries\MIMXRT1064\MIMXRT1064\gcc\startup_MIMXRT1064.o
FLEXSPI_DriverIRQHandler                          libraries\MIMXRT1064\MIMXRT1064\gcc\startup_MIMXRT1064.o
FLEXSPI_IRQHandler                                libraries\MIMXRT1064\MIMXRT1064\gcc\startup_MIMXRT1064.o
GPC_IRQHandler                                    libraries\MIMXRT1064\MIMXRT1064\gcc\startup_MIMXRT1064.o
GPIO1_Combined_0_15_IRQHandler                    libraries\drivers\drv_gpio.o
                                                  libraries\MIMXRT1064\MIMXRT1064\gcc\startup_MIMXRT1064.o
GPIO1_Combined_16_31_IRQHandler                   libraries\drivers\drv_gpio.o
                                                  libraries\MIMXRT1064\MIMXRT1064\gcc\startup_MIMXRT1064.o
GPIO1_INT0_IRQHandler                             libraries\MIMXRT1064\MIMXRT1064\gcc\startup_MIMXRT1064.o
GPIO1_INT1_IRQHandler                             libraries\MIMXRT1064\MIMXRT1064\gcc\startup_MIMXRT1064.o
GPIO1_INT2_IRQHandler                             libraries\MIMXRT1064\MIMXRT1064\gcc\startup_MIMXRT1064.o
GPIO1_INT3_IRQHandler                             libraries\MIMXRT1064\MIMXRT1064\gcc\startup_MIMXRT1064.o
GPIO1_INT4_IRQHandler                             libraries\MIMXRT1064\MIMXRT1064\gcc\startup_MIMXRT1064.o
GPIO1_INT5_IRQHandler                             libraries\MIMXRT1064\MIMXRT1064\gcc\startup_MIMXRT1064.o
GPIO1_INT6_IRQHandler                             libraries\MIMXRT1064\MIMXRT1064\gcc\startup_MIMXRT1064.o
GPIO1_INT7_IRQHandler                             libraries\MIMXRT1064\MIMXRT1064\gcc\startup_MIMXRT1064.o
GPIO2_Combined_0_15_IRQHandler                    libraries\drivers\drv_gpio.o
                                                  libraries\MIMXRT1064\MIMXRT1064\gcc\startup_MIMXRT1064.o
GPIO2_Combined_16_31_IRQHandler                   libraries\drivers\drv_gpio.o
                                                  libraries\MIMXRT1064\MIMXRT1064\gcc\startup_MIMXRT1064.o
GPIO3_Combined_0_15_IRQHandler                    libraries\drivers\drv_gpio.o
                                                  libraries\MIMXRT1064\MIMXRT1064\gcc\startup_MIMXRT1064.o
GPIO3_Combined_16_31_IRQHandler                   libraries\drivers\drv_gpio.o
                                                  libraries\MIMXRT1064\MIMXRT1064\gcc\startup_MIMXRT1064.o
GPIO4_Combined_0_15_IRQHandler                    libraries\drivers\drv_gpio.o
                                                  libraries\MIMXRT1064\MIMXRT1064\gcc\startup_MIMXRT1064.o
GPIO4_Combined_16_31_IRQHandler                   libraries\drivers\drv_gpio.o
                                                  libraries\MIMXRT1064\MIMXRT1064\gcc\startup_MIMXRT1064.o
GPIO5_Combined_0_15_IRQHandler                    libraries\drivers\drv_gpio.o
                                                  libraries\MIMXRT1064\MIMXRT1064\gcc\startup_MIMXRT1064.o
GPIO5_Combined_16_31_IRQHandler                   libraries\MIMXRT1064\MIMXRT1064\gcc\startup_MIMXRT1064.o
GPIO6_7_8_9_IRQHandler                            libraries\MIMXRT1064\MIMXRT1064\gcc\startup_MIMXRT1064.o
GPIO_PinInit                                      libraries\MIMXRT1064\MIMXRT1064\drivers\fsl_gpio.o
                                                  libraries\drivers\drv_gpio.o
GPIO_PinSetInterruptConfig                        libraries\MIMXRT1064\MIMXRT1064\drivers\fsl_gpio.o
                                                  libraries\drivers\drv_gpio.o
GPIO_PinWrite                                     libraries\MIMXRT1064\MIMXRT1064\drivers\fsl_gpio.o
                                                  libraries\drivers\drv_gpio.o
GPR_IRQ_IRQHandler                                libraries\MIMXRT1064\MIMXRT1064\gcc\startup_MIMXRT1064.o
GPT1_IRQHandler                                   libraries\MIMXRT1064\MIMXRT1064\gcc\startup_MIMXRT1064.o
GPT2_IRQHandler                                   libraries\MIMXRT1064\MIMXRT1064\gcc\startup_MIMXRT1064.o
GetUartSrcFreq                                    libraries\drivers\drv_uart.o
HardFault_Handler                                 build\kernel\libcpu\arm\cortex-m7\context_gcc.o
ICACHE_InvalidateByRange                          libraries\MIMXRT1064\MIMXRT1064\drivers\fsl_cache.o
KPP_IRQHandler                                    libraries\MIMXRT1064\MIMXRT1064\gcc\startup_MIMXRT1064.o
L1CACHE_InvalidateICacheByRange                   libraries\MIMXRT1064\MIMXRT1064\drivers\fsl_cache.o
LCDIF_IRQHandler                                  libraries\MIMXRT1064\MIMXRT1064\gcc\startup_MIMXRT1064.o
LPI2C1_DriverIRQHandler                           libraries\MIMXRT1064\MIMXRT1064\gcc\startup_MIMXRT1064.o
LPI2C1_IRQHandler                                 libraries\MIMXRT1064\MIMXRT1064\gcc\startup_MIMXRT1064.o
LPI2C2_DriverIRQHandler                           libraries\MIMXRT1064\MIMXRT1064\gcc\startup_MIMXRT1064.o
LPI2C2_IRQHandler                                 libraries\MIMXRT1064\MIMXRT1064\gcc\startup_MIMXRT1064.o
LPI2C3_DriverIRQHandler                           libraries\MIMXRT1064\MIMXRT1064\gcc\startup_MIMXRT1064.o
LPI2C3_IRQHandler                                 libraries\MIMXRT1064\MIMXRT1064\gcc\startup_MIMXRT1064.o
LPI2C4_DriverIRQHandler                           libraries\MIMXRT1064\MIMXRT1064\gcc\startup_MIMXRT1064.o
LPI2C4_IRQHandler                                 libraries\MIMXRT1064\MIMXRT1064\gcc\startup_MIMXRT1064.o
LPSPI1_DriverIRQHandler                           libraries\MIMXRT1064\MIMXRT1064\gcc\startup_MIMXRT1064.o
LPSPI1_IRQHandler                                 libraries\MIMXRT1064\MIMXRT1064\gcc\startup_MIMXRT1064.o
LPSPI2_DriverIRQHandler                           libraries\MIMXRT1064\MIMXRT1064\gcc\startup_MIMXRT1064.o
LPSPI2_IRQHandler                                 libraries\MIMXRT1064\MIMXRT1064\gcc\startup_MIMXRT1064.o
LPSPI3_DriverIRQHandler                           libraries\MIMXRT1064\MIMXRT1064\gcc\startup_MIMXRT1064.o
LPSPI3_IRQHandler                                 libraries\MIMXRT1064\MIMXRT1064\gcc\startup_MIMXRT1064.o
LPSPI4_DriverIRQHandler                           libraries\MIMXRT1064\MIMXRT1064\gcc\startup_MIMXRT1064.o
LPSPI4_IRQHandler                                 libraries\MIMXRT1064\MIMXRT1064\gcc\startup_MIMXRT1064.o
LPUART1_DriverIRQHandler                          libraries\MIMXRT1064\MIMXRT1064\drivers\fsl_lpuart.o
                                                  libraries\MIMXRT1064\MIMXRT1064\gcc\startup_MIMXRT1064.o
LPUART1_IRQHandler                                libraries\drivers\drv_uart.o
                                                  libraries\MIMXRT1064\MIMXRT1064\gcc\startup_MIMXRT1064.o
LPUART2_DriverIRQHandler                          libraries\MIMXRT1064\MIMXRT1064\drivers\fsl_lpuart.o
                                                  libraries\MIMXRT1064\MIMXRT1064\gcc\startup_MIMXRT1064.o
LPUART2_IRQHandler                                libraries\MIMXRT1064\MIMXRT1064\gcc\startup_MIMXRT1064.o
LPUART3_DriverIRQHandler                          libraries\MIMXRT1064\MIMXRT1064\drivers\fsl_lpuart.o
                                                  libraries\MIMXRT1064\MIMXRT1064\gcc\startup_MIMXRT1064.o
LPUART3_IRQHandler                                libraries\MIMXRT1064\MIMXRT1064\gcc\startup_MIMXRT1064.o
LPUART4_DriverIRQHandler                          libraries\MIMXRT1064\MIMXRT1064\drivers\fsl_lpuart.o
                                                  libraries\MIMXRT1064\MIMXRT1064\gcc\startup_MIMXRT1064.o
LPUART4_IRQHandler                                libraries\MIMXRT1064\MIMXRT1064\gcc\startup_MIMXRT1064.o
LPUART5_DriverIRQHandler                          libraries\MIMXRT1064\MIMXRT1064\drivers\fsl_lpuart.o
                                                  libraries\MIMXRT1064\MIMXRT1064\gcc\startup_MIMXRT1064.o
LPUART5_IRQHandler                                libraries\MIMXRT1064\MIMXRT1064\gcc\startup_MIMXRT1064.o
LPUART6_DriverIRQHandler                          libraries\MIMXRT1064\MIMXRT1064\drivers\fsl_lpuart.o
                                                  libraries\MIMXRT1064\MIMXRT1064\gcc\startup_MIMXRT1064.o
LPUART6_IRQHandler                                libraries\MIMXRT1064\MIMXRT1064\gcc\startup_MIMXRT1064.o
LPUART7_DriverIRQHandler                          libraries\MIMXRT1064\MIMXRT1064\drivers\fsl_lpuart.o
                                                  libraries\MIMXRT1064\MIMXRT1064\gcc\startup_MIMXRT1064.o
LPUART7_IRQHandler                                libraries\MIMXRT1064\MIMXRT1064\gcc\startup_MIMXRT1064.o
LPUART8_DriverIRQHandler                          libraries\MIMXRT1064\MIMXRT1064\drivers\fsl_lpuart.o
                                                  libraries\MIMXRT1064\MIMXRT1064\gcc\startup_MIMXRT1064.o
LPUART8_IRQHandler                                libraries\MIMXRT1064\MIMXRT1064\gcc\startup_MIMXRT1064.o
LPUART_ClearStatusFlags                           libraries\MIMXRT1064\MIMXRT1064\drivers\fsl_lpuart.o
                                                  libraries\drivers\drv_uart.o
LPUART_Deinit                                     libraries\MIMXRT1064\MIMXRT1064\drivers\fsl_lpuart.o
LPUART_DisableInterrupts                          libraries\MIMXRT1064\MIMXRT1064\drivers\fsl_lpuart.o
LPUART_EnableInterrupts                           libraries\MIMXRT1064\MIMXRT1064\drivers\fsl_lpuart.o
                                                  libraries\drivers\drv_uart.o
LPUART_GetDefaultConfig                           libraries\MIMXRT1064\MIMXRT1064\drivers\fsl_lpuart.o
                                                  libraries\drivers\drv_uart.o
LPUART_GetEnabledInterrupts                       libraries\MIMXRT1064\MIMXRT1064\drivers\fsl_lpuart.o
LPUART_GetInstance                                libraries\MIMXRT1064\MIMXRT1064\drivers\fsl_lpuart.o
LPUART_GetStatusFlags                             libraries\MIMXRT1064\MIMXRT1064\drivers\fsl_lpuart.o
                                                  libraries\drivers\drv_uart.o
LPUART_Init                                       libraries\MIMXRT1064\MIMXRT1064\drivers\fsl_lpuart.o
                                                  libraries\drivers\drv_uart.o
LPUART_ReadBlocking                               libraries\MIMXRT1064\MIMXRT1064\drivers\fsl_lpuart.o
LPUART_SetBaudRate                                libraries\MIMXRT1064\MIMXRT1064\drivers\fsl_lpuart.o
LPUART_TransferAbortReceive                       libraries\MIMXRT1064\MIMXRT1064\drivers\fsl_lpuart.o
LPUART_TransferAbortSend                          libraries\MIMXRT1064\MIMXRT1064\drivers\fsl_lpuart.o
LPUART_TransferCreateHandle                       libraries\MIMXRT1064\MIMXRT1064\drivers\fsl_lpuart.o
LPUART_TransferGetReceiveCount                    libraries\MIMXRT1064\MIMXRT1064\drivers\fsl_lpuart.o
LPUART_TransferGetRxRingBufferLength              libraries\MIMXRT1064\MIMXRT1064\drivers\fsl_lpuart.o
LPUART_TransferGetSendCount                       libraries\MIMXRT1064\MIMXRT1064\drivers\fsl_lpuart.o
LPUART_TransferHandleErrorIRQ                     libraries\MIMXRT1064\MIMXRT1064\drivers\fsl_lpuart.o
LPUART_TransferHandleIRQ                          libraries\MIMXRT1064\MIMXRT1064\drivers\fsl_lpuart.o
LPUART_TransferReceiveNonBlocking                 libraries\MIMXRT1064\MIMXRT1064\drivers\fsl_lpuart.o
LPUART_TransferSendNonBlocking                    libraries\MIMXRT1064\MIMXRT1064\drivers\fsl_lpuart.o
LPUART_TransferStartRingBuffer                    libraries\MIMXRT1064\MIMXRT1064\drivers\fsl_lpuart.o
LPUART_TransferStopRingBuffer                     libraries\MIMXRT1064\MIMXRT1064\drivers\fsl_lpuart.o
LPUART_WriteBlocking                              libraries\MIMXRT1064\MIMXRT1064\drivers\fsl_lpuart.o
MemManage_Handler                                 libraries\MIMXRT1064\MIMXRT1064\gcc\startup_MIMXRT1064.o
NMI_Handler                                       libraries\MIMXRT1064\MIMXRT1064\gcc\startup_MIMXRT1064.o
PIT_IRQHandler                                    libraries\MIMXRT1064\MIMXRT1064\gcc\startup_MIMXRT1064.o
PMU_EVENT_IRQHandler                              libraries\MIMXRT1064\MIMXRT1064\gcc\startup_MIMXRT1064.o
PWM1_0_IRQHandler                                 libraries\MIMXRT1064\MIMXRT1064\gcc\startup_MIMXRT1064.o
PWM1_1_IRQHandler                                 libraries\MIMXRT1064\MIMXRT1064\gcc\startup_MIMXRT1064.o
PWM1_2_IRQHandler                                 libraries\MIMXRT1064\MIMXRT1064\gcc\startup_MIMXRT1064.o
PWM1_3_IRQHandler                                 libraries\MIMXRT1064\MIMXRT1064\gcc\startup_MIMXRT1064.o
PWM1_FAULT_IRQHandler                             libraries\MIMXRT1064\MIMXRT1064\gcc\startup_MIMXRT1064.o
PWM2_0_IRQHandler                                 libraries\MIMXRT1064\MIMXRT1064\gcc\startup_MIMXRT1064.o
PWM2_1_IRQHandler                                 libraries\MIMXRT1064\MIMXRT1064\gcc\startup_MIMXRT1064.o
PWM2_2_IRQHandler                                 libraries\MIMXRT1064\MIMXRT1064\gcc\startup_MIMXRT1064.o
PWM2_3_IRQHandler                                 libraries\MIMXRT1064\MIMXRT1064\gcc\startup_MIMXRT1064.o
PWM2_FAULT_IRQHandler                             libraries\MIMXRT1064\MIMXRT1064\gcc\startup_MIMXRT1064.o
PWM3_0_IRQHandler                                 libraries\MIMXRT1064\MIMXRT1064\gcc\startup_MIMXRT1064.o
PWM3_1_IRQHandler                                 libraries\MIMXRT1064\MIMXRT1064\gcc\startup_MIMXRT1064.o
PWM3_2_IRQHandler                                 libraries\MIMXRT1064\MIMXRT1064\gcc\startup_MIMXRT1064.o
PWM3_3_IRQHandler                                 libraries\MIMXRT1064\MIMXRT1064\gcc\startup_MIMXRT1064.o
PWM3_FAULT_IRQHandler                             libraries\MIMXRT1064\MIMXRT1064\gcc\startup_MIMXRT1064.o
PWM4_0_IRQHandler                                 libraries\MIMXRT1064\MIMXRT1064\gcc\startup_MIMXRT1064.o
PWM4_1_IRQHandler                                 libraries\MIMXRT1064\MIMXRT1064\gcc\startup_MIMXRT1064.o
PWM4_2_IRQHandler                                 libraries\MIMXRT1064\MIMXRT1064\gcc\startup_MIMXRT1064.o
PWM4_3_IRQHandler                                 libraries\MIMXRT1064\MIMXRT1064\gcc\startup_MIMXRT1064.o
PWM4_FAULT_IRQHandler                             libraries\MIMXRT1064\MIMXRT1064\gcc\startup_MIMXRT1064.o
PXP_IRQHandler                                    libraries\MIMXRT1064\MIMXRT1064\gcc\startup_MIMXRT1064.o
PendSV_Handler                                    build\kernel\libcpu\arm\cortex-m7\context_gcc.o
RTWDOG_IRQHandler                                 libraries\MIMXRT1064\MIMXRT1064\gcc\startup_MIMXRT1064.o
Reserved115_IRQHandler                            libraries\MIMXRT1064\MIMXRT1064\gcc\startup_MIMXRT1064.o
Reserved143_IRQHandler                            libraries\MIMXRT1064\MIMXRT1064\gcc\startup_MIMXRT1064.o
Reserved144_IRQHandler                            libraries\MIMXRT1064\MIMXRT1064\gcc\startup_MIMXRT1064.o
Reserved171_IRQHandler                            libraries\MIMXRT1064\MIMXRT1064\gcc\startup_MIMXRT1064.o
Reserved68_IRQHandler                             libraries\MIMXRT1064\MIMXRT1064\gcc\startup_MIMXRT1064.o
Reserved78_IRQHandler                             libraries\MIMXRT1064\MIMXRT1064\gcc\startup_MIMXRT1064.o
Reserved86_IRQHandler                             libraries\MIMXRT1064\MIMXRT1064\gcc\startup_MIMXRT1064.o
Reserved87_IRQHandler                             libraries\MIMXRT1064\MIMXRT1064\gcc\startup_MIMXRT1064.o
Reset_Handler                                     libraries\MIMXRT1064\MIMXRT1064\gcc\startup_MIMXRT1064.o
SAI1_DriverIRQHandler                             libraries\MIMXRT1064\MIMXRT1064\gcc\startup_MIMXRT1064.o
SAI1_IRQHandler                                   libraries\MIMXRT1064\MIMXRT1064\gcc\startup_MIMXRT1064.o
SAI2_DriverIRQHandler                             libraries\MIMXRT1064\MIMXRT1064\gcc\startup_MIMXRT1064.o
SAI2_IRQHandler                                   libraries\MIMXRT1064\MIMXRT1064\gcc\startup_MIMXRT1064.o
SAI3_RX_DriverIRQHandler                          libraries\MIMXRT1064\MIMXRT1064\gcc\startup_MIMXRT1064.o
SAI3_RX_IRQHandler                                libraries\MIMXRT1064\MIMXRT1064\gcc\startup_MIMXRT1064.o
SAI3_TX_DriverIRQHandler                          libraries\MIMXRT1064\MIMXRT1064\gcc\startup_MIMXRT1064.o
SAI3_TX_IRQHandler                                libraries\MIMXRT1064\MIMXRT1064\gcc\startup_MIMXRT1064.o
SDK_Free                                          libraries\MIMXRT1064\MIMXRT1064\drivers\fsl_common.o
SDK_Malloc                                        libraries\MIMXRT1064\MIMXRT1064\drivers\fsl_common.o
SEMC_IRQHandler                                   libraries\MIMXRT1064\MIMXRT1064\gcc\startup_MIMXRT1064.o
SJC_IRQHandler                                    libraries\MIMXRT1064\MIMXRT1064\gcc\startup_MIMXRT1064.o
SNVS_HP_WRAPPER_IRQHandler                        libraries\MIMXRT1064\MIMXRT1064\gcc\startup_MIMXRT1064.o
SNVS_HP_WRAPPER_TZ_IRQHandler                     libraries\MIMXRT1064\MIMXRT1064\gcc\startup_MIMXRT1064.o
SNVS_LP_WRAPPER_IRQHandler                        libraries\MIMXRT1064\MIMXRT1064\gcc\startup_MIMXRT1064.o
SPDIF_DriverIRQHandler                            libraries\MIMXRT1064\MIMXRT1064\gcc\startup_MIMXRT1064.o
SPDIF_IRQHandler                                  libraries\MIMXRT1064\MIMXRT1064\gcc\startup_MIMXRT1064.o
SRC_IRQHandler                                    libraries\MIMXRT1064\MIMXRT1064\gcc\startup_MIMXRT1064.o
SVC_Handler                                       libraries\MIMXRT1064\MIMXRT1064\gcc\startup_MIMXRT1064.o
SysTick_Handler                                   build\board\board.o
SystemCoreClock                                   libraries\MIMXRT1064\MIMXRT1064\system_MIMXRT1064.o
                                                  build\board\MCUX_Config\clock_config.o
                                                  build\board\board.o
SystemCoreClockUpdate                             libraries\MIMXRT1064\MIMXRT1064\system_MIMXRT1064.o
SystemInit                                        libraries\MIMXRT1064\MIMXRT1064\system_MIMXRT1064.o
                                                  libraries\MIMXRT1064\MIMXRT1064\gcc\startup_MIMXRT1064.o
SystemInitHook                                    libraries\MIMXRT1064\MIMXRT1064\system_MIMXRT1064.o
TEMP_LOW_HIGH_IRQHandler                          libraries\MIMXRT1064\MIMXRT1064\gcc\startup_MIMXRT1064.o
TEMP_PANIC_IRQHandler                             libraries\MIMXRT1064\MIMXRT1064\gcc\startup_MIMXRT1064.o
TMR1_IRQHandler                                   libraries\MIMXRT1064\MIMXRT1064\gcc\startup_MIMXRT1064.o
TMR2_IRQHandler                                   libraries\MIMXRT1064\MIMXRT1064\gcc\startup_MIMXRT1064.o
TMR3_IRQHandler                                   libraries\MIMXRT1064\MIMXRT1064\gcc\startup_MIMXRT1064.o
TMR4_IRQHandler                                   libraries\MIMXRT1064\MIMXRT1064\gcc\startup_MIMXRT1064.o
TRNG_IRQHandler                                   libraries\MIMXRT1064\MIMXRT1064\gcc\startup_MIMXRT1064.o
TSC_DIG_IRQHandler                                libraries\MIMXRT1064\MIMXRT1064\gcc\startup_MIMXRT1064.o
USB_OTG1_IRQHandler                               libraries\MIMXRT1064\MIMXRT1064\gcc\startup_MIMXRT1064.o
USB_OTG2_IRQHandler                               libraries\MIMXRT1064\MIMXRT1064\gcc\startup_MIMXRT1064.o
USB_PHY1_IRQHandler                               libraries\MIMXRT1064\MIMXRT1064\gcc\startup_MIMXRT1064.o
USB_PHY2_IRQHandler                               libraries\MIMXRT1064\MIMXRT1064\gcc\startup_MIMXRT1064.o
USDHC1_DriverIRQHandler                           libraries\MIMXRT1064\MIMXRT1064\gcc\startup_MIMXRT1064.o
USDHC1_IRQHandler                                 libraries\MIMXRT1064\MIMXRT1064\gcc\startup_MIMXRT1064.o
USDHC2_DriverIRQHandler                           libraries\MIMXRT1064\MIMXRT1064\gcc\startup_MIMXRT1064.o
USDHC2_IRQHandler                                 libraries\MIMXRT1064\MIMXRT1064\gcc\startup_MIMXRT1064.o
UsageFault_Handler                                libraries\MIMXRT1064\MIMXRT1064\gcc\startup_MIMXRT1064.o
WDOG1_IRQHandler                                  libraries\MIMXRT1064\MIMXRT1064\gcc\startup_MIMXRT1064.o
WDOG2_IRQHandler                                  libraries\MIMXRT1064\MIMXRT1064\gcc\startup_MIMXRT1064.o
XBAR1_IRQ_0_1_IRQHandler                          libraries\MIMXRT1064\MIMXRT1064\gcc\startup_MIMXRT1064.o
XBAR1_IRQ_2_3_IRQHandler                          libraries\MIMXRT1064\MIMXRT1064\gcc\startup_MIMXRT1064.o
_Balloc                                           c:/users/yaxing.chen/downloads/env_released_1.2.0/env/tools/gnu_gcc/arm_gcc/mingw/bin/../lib/gcc/arm-none-eabi/5.4.1/../../../../arm-none-eabi/lib/armv7e-m/fpu/fpv5-d16\libc.a(lib_a-mprec.o)
                                                  c:/users/yaxing.chen/downloads/env_released_1.2.0/env/tools/gnu_gcc/arm_gcc/mingw/bin/../lib/gcc/arm-none-eabi/5.4.1/../../../../arm-none-eabi/lib/armv7e-m/fpu/fpv5-d16\libc.a(lib_a-dtoa.o)
_Bfree                                            c:/users/yaxing.chen/downloads/env_released_1.2.0/env/tools/gnu_gcc/arm_gcc/mingw/bin/../lib/gcc/arm-none-eabi/5.4.1/../../../../arm-none-eabi/lib/armv7e-m/fpu/fpv5-d16\libc.a(lib_a-mprec.o)
                                                  c:/users/yaxing.chen/downloads/env_released_1.2.0/env/tools/gnu_gcc/arm_gcc/mingw/bin/../lib/gcc/arm-none-eabi/5.4.1/../../../../arm-none-eabi/lib/armv7e-m/fpu/fpv5-d16\libc.a(lib_a-dtoa.o)
_PathLocale                                       c:/users/yaxing.chen/downloads/env_released_1.2.0/env/tools/gnu_gcc/arm_gcc/mingw/bin/../lib/gcc/arm-none-eabi/5.4.1/../../../../arm-none-eabi/lib/armv7e-m/fpu/fpv5-d16\libc.a(lib_a-locale.o)
__FLASH_BASE                                      build\xip\fsl_flexspi_nor_boot.o
__StackTop                                        libraries\MIMXRT1064\MIMXRT1064\gcc\startup_MIMXRT1064.o
__VECTOR_TABLE                                    build\xip\fsl_flexspi_nor_boot.o
__aeabi_idiv0                                     c:/users/yaxing.chen/downloads/env_released_1.2.0/env/tools/gnu_gcc/arm_gcc/mingw/bin/../lib/gcc/arm-none-eabi/5.4.1/armv7e-m/fpu/fpv5-d16\libgcc.a(_dvmd_tls.o)
__aeabi_ldiv0                                     c:/users/yaxing.chen/downloads/env_released_1.2.0/env/tools/gnu_gcc/arm_gcc/mingw/bin/../lib/gcc/arm-none-eabi/5.4.1/armv7e-m/fpu/fpv5-d16\libgcc.a(_dvmd_tls.o)
                                                  c:/users/yaxing.chen/downloads/env_released_1.2.0/env/tools/gnu_gcc/arm_gcc/mingw/bin/../lib/gcc/arm-none-eabi/5.4.1/armv7e-m/fpu/fpv5-d16\libgcc.a(_aeabi_uldivmod.o)
__aeabi_uldivmod                                  c:/users/yaxing.chen/downloads/env_released_1.2.0/env/tools/gnu_gcc/arm_gcc/mingw/bin/../lib/gcc/arm-none-eabi/5.4.1/armv7e-m/fpu/fpv5-d16\libgcc.a(_aeabi_uldivmod.o)
                                                  c:/users/yaxing.chen/downloads/env_released_1.2.0/env/tools/gnu_gcc/arm_gcc/mingw/bin/../lib/gcc/arm-none-eabi/5.4.1/../../../../arm-none-eabi/lib/armv7e-m/fpu/fpv5-d16\libc.a(lib_a-svfiprintf.o)
                                                  c:/users/yaxing.chen/downloads/env_released_1.2.0/env/tools/gnu_gcc/arm_gcc/mingw/bin/../lib/gcc/arm-none-eabi/5.4.1/../../../../arm-none-eabi/lib/armv7e-m/fpu/fpv5-d16\libc.a(lib_a-vfiprintf.o)
                                                  c:/users/yaxing.chen/downloads/env_released_1.2.0/env/tools/gnu_gcc/arm_gcc/mingw/bin/../lib/gcc/arm-none-eabi/5.4.1/../../../../arm-none-eabi/lib/armv7e-m/fpu/fpv5-d16\libc.a(lib_a-svfprintf.o)
                                                  libraries\MIMXRT1064\MIMXRT1064\system_MIMXRT1064.o
__any_on                                          c:/users/yaxing.chen/downloads/env_released_1.2.0/env/tools/gnu_gcc/arm_gcc/mingw/bin/../lib/gcc/arm-none-eabi/5.4.1/../../../../arm-none-eabi/lib/armv7e-m/fpu/fpv5-d16\libc.a(lib_a-mprec.o)
__ascii_mbtowc                                    c:/users/yaxing.chen/downloads/env_released_1.2.0/env/tools/gnu_gcc/arm_gcc/mingw/bin/../lib/gcc/arm-none-eabi/5.4.1/../../../../arm-none-eabi/lib/armv7e-m/fpu/fpv5-d16\libc.a(lib_a-mbtowc_r.o)
                                                  c:/users/yaxing.chen/downloads/env_released_1.2.0/env/tools/gnu_gcc/arm_gcc/mingw/bin/../lib/gcc/arm-none-eabi/5.4.1/../../../../arm-none-eabi/lib/armv7e-m/fpu/fpv5-d16\libc.a(lib_a-locale.o)
__ascii_wctomb                                    c:/users/yaxing.chen/downloads/env_released_1.2.0/env/tools/gnu_gcc/arm_gcc/mingw/bin/../lib/gcc/arm-none-eabi/5.4.1/../../../../arm-none-eabi/lib/armv7e-m/fpu/fpv5-d16\libc.a(lib_a-wctomb_r.o)
                                                  c:/users/yaxing.chen/downloads/env_released_1.2.0/env/tools/gnu_gcc/arm_gcc/mingw/bin/../lib/gcc/arm-none-eabi/5.4.1/../../../../arm-none-eabi/lib/armv7e-m/fpu/fpv5-d16\libc.a(lib_a-locale.o)
__assert                                          c:/users/yaxing.chen/downloads/env_released_1.2.0/env/tools/gnu_gcc/arm_gcc/mingw/bin/../lib/gcc/arm-none-eabi/5.4.1/../../../../arm-none-eabi/lib/armv7e-m/fpu/fpv5-d16\libc.a(lib_a-assert.o)
__assert_func                                     c:/users/yaxing.chen/downloads/env_released_1.2.0/env/tools/gnu_gcc/arm_gcc/mingw/bin/../lib/gcc/arm-none-eabi/5.4.1/../../../../arm-none-eabi/lib/armv7e-m/fpu/fpv5-d16\libc.a(lib_a-assert.o)
                                                  libraries\MIMXRT1064\MIMXRT1064\drivers\fsl_lpuart.o
                                                  libraries\MIMXRT1064\MIMXRT1064\drivers\fsl_gpio.o
                                                  libraries\MIMXRT1064\MIMXRT1064\drivers\fsl_clock.o
                                                  build\board\MCUX_Config\clock_config.o
__b2d                                             c:/users/yaxing.chen/downloads/env_released_1.2.0/env/tools/gnu_gcc/arm_gcc/mingw/bin/../lib/gcc/arm-none-eabi/5.4.1/../../../../arm-none-eabi/lib/armv7e-m/fpu/fpv5-d16\libc.a(lib_a-mprec.o)
__bss_end__                                       libraries\MIMXRT1064\MIMXRT1064\gcc\startup_MIMXRT1064.o
__bss_start__                                     libraries\MIMXRT1064\MIMXRT1064\gcc\startup_MIMXRT1064.o
__copybits                                        c:/users/yaxing.chen/downloads/env_released_1.2.0/env/tools/gnu_gcc/arm_gcc/mingw/bin/../lib/gcc/arm-none-eabi/5.4.1/../../../../arm-none-eabi/lib/armv7e-m/fpu/fpv5-d16\libc.a(lib_a-mprec.o)
__d2b                                             c:/users/yaxing.chen/downloads/env_released_1.2.0/env/tools/gnu_gcc/arm_gcc/mingw/bin/../lib/gcc/arm-none-eabi/5.4.1/../../../../arm-none-eabi/lib/armv7e-m/fpu/fpv5-d16\libc.a(lib_a-mprec.o)
                                                  c:/users/yaxing.chen/downloads/env_released_1.2.0/env/tools/gnu_gcc/arm_gcc/mingw/bin/../lib/gcc/arm-none-eabi/5.4.1/../../../../arm-none-eabi/lib/armv7e-m/fpu/fpv5-d16\libc.a(lib_a-dtoa.o)
__data_end__                                      libraries\MIMXRT1064\MIMXRT1064\gcc\startup_MIMXRT1064.o
__data_start__                                    libraries\MIMXRT1064\MIMXRT1064\gcc\startup_MIMXRT1064.o
__div0                                            build\kernel\libcpu\arm\common\div0.o
__errno                                           build\kernel\components\libc\compilers\newlib\syscalls.o
__etext                                           libraries\MIMXRT1064\MIMXRT1064\gcc\startup_MIMXRT1064.o
__fp_lock_all                                     c:/users/yaxing.chen/downloads/env_released_1.2.0/env/tools/gnu_gcc/arm_gcc/mingw/bin/../lib/gcc/arm-none-eabi/5.4.1/../../../../arm-none-eabi/lib/armv7e-m/fpu/fpv5-d16\libc.a(lib_a-findfp.o)
__fp_unlock_all                                   c:/users/yaxing.chen/downloads/env_released_1.2.0/env/tools/gnu_gcc/arm_gcc/mingw/bin/../lib/gcc/arm-none-eabi/5.4.1/../../../../arm-none-eabi/lib/armv7e-m/fpu/fpv5-d16\libc.a(lib_a-findfp.o)
__fputwc                                          c:/users/yaxing.chen/downloads/env_released_1.2.0/env/tools/gnu_gcc/arm_gcc/mingw/bin/../lib/gcc/arm-none-eabi/5.4.1/../../../../arm-none-eabi/lib/armv7e-m/fpu/fpv5-d16\libc.a(lib_a-fputwc.o)
__fsym___cmd_clear                                build\kernel\components\finsh\cmd.o
__fsym___cmd_clear_desc                           build\kernel\components\finsh\cmd.o
__fsym___cmd_clear_name                           build\kernel\components\finsh\cmd.o
__fsym___cmd_free                                 build\kernel\components\finsh\msh.o
__fsym___cmd_free_desc                            build\kernel\components\finsh\msh.o
__fsym___cmd_free_name                            build\kernel\components\finsh\msh.o
__fsym___cmd_help                                 build\kernel\components\finsh\msh.o
__fsym___cmd_help_desc                            build\kernel\components\finsh\msh.o
__fsym___cmd_help_name                            build\kernel\components\finsh\msh.o
__fsym___cmd_list_device                          build\kernel\components\finsh\cmd.o
__fsym___cmd_list_device_desc                     build\kernel\components\finsh\cmd.o
__fsym___cmd_list_device_name                     build\kernel\components\finsh\cmd.o
__fsym___cmd_list_event                           build\kernel\components\finsh\cmd.o
__fsym___cmd_list_event_desc                      build\kernel\components\finsh\cmd.o
__fsym___cmd_list_event_name                      build\kernel\components\finsh\cmd.o
__fsym___cmd_list_mailbox                         build\kernel\components\finsh\cmd.o
__fsym___cmd_list_mailbox_desc                    build\kernel\components\finsh\cmd.o
__fsym___cmd_list_mailbox_name                    build\kernel\components\finsh\cmd.o
__fsym___cmd_list_memheap                         build\kernel\components\finsh\cmd.o
__fsym___cmd_list_memheap_desc                    build\kernel\components\finsh\cmd.o
__fsym___cmd_list_memheap_name                    build\kernel\components\finsh\cmd.o
__fsym___cmd_list_mempool                         build\kernel\components\finsh\cmd.o
__fsym___cmd_list_mempool_desc                    build\kernel\components\finsh\cmd.o
__fsym___cmd_list_mempool_name                    build\kernel\components\finsh\cmd.o
__fsym___cmd_list_msgqueue                        build\kernel\components\finsh\cmd.o
__fsym___cmd_list_msgqueue_desc                   build\kernel\components\finsh\cmd.o
__fsym___cmd_list_msgqueue_name                   build\kernel\components\finsh\cmd.o
__fsym___cmd_list_mutex                           build\kernel\components\finsh\cmd.o
__fsym___cmd_list_mutex_desc                      build\kernel\components\finsh\cmd.o
__fsym___cmd_list_mutex_name                      build\kernel\components\finsh\cmd.o
__fsym___cmd_list_sem                             build\kernel\components\finsh\cmd.o
__fsym___cmd_list_sem_desc                        build\kernel\components\finsh\cmd.o
__fsym___cmd_list_sem_name                        build\kernel\components\finsh\cmd.o
__fsym___cmd_list_thread                          build\kernel\components\finsh\cmd.o
__fsym___cmd_list_thread_desc                     build\kernel\components\finsh\cmd.o
__fsym___cmd_list_thread_name                     build\kernel\components\finsh\cmd.o
__fsym___cmd_list_timer                           build\kernel\components\finsh\cmd.o
__fsym___cmd_list_timer_desc                      build\kernel\components\finsh\cmd.o
__fsym___cmd_list_timer_name                      build\kernel\components\finsh\cmd.o
__fsym___cmd_ps                                   build\kernel\components\finsh\msh.o
__fsym___cmd_ps_desc                              build\kernel\components\finsh\msh.o
__fsym___cmd_ps_name                              build\kernel\components\finsh\msh.o
__fsym___cmd_reboot                               build\applications\main.o
__fsym___cmd_reboot_desc                          build\applications\main.o
__fsym___cmd_reboot_name                          build\applications\main.o
__fsym___cmd_version                              build\kernel\components\finsh\cmd.o
__fsym___cmd_version_desc                         build\kernel\components\finsh\cmd.o
__fsym___cmd_version_name                         build\kernel\components\finsh\cmd.o
__fsym_clear                                      build\kernel\components\finsh\cmd.o
__fsym_clear_desc                                 build\kernel\components\finsh\cmd.o
__fsym_clear_name                                 build\kernel\components\finsh\cmd.o
__fsym_hello                                      build\kernel\components\finsh\cmd.o
__fsym_hello_desc                                 build\kernel\components\finsh\cmd.o
__fsym_hello_name                                 build\kernel\components\finsh\cmd.o
__fsym_list                                       build\kernel\components\finsh\cmd.o
__fsym_list_desc                                  build\kernel\components\finsh\cmd.o
__fsym_list_device                                build\kernel\components\finsh\cmd.o
__fsym_list_device_desc                           build\kernel\components\finsh\cmd.o
__fsym_list_device_name                           build\kernel\components\finsh\cmd.o
__fsym_list_event                                 build\kernel\components\finsh\cmd.o
__fsym_list_event_desc                            build\kernel\components\finsh\cmd.o
__fsym_list_event_name                            build\kernel\components\finsh\cmd.o
__fsym_list_mailbox                               build\kernel\components\finsh\cmd.o
__fsym_list_mailbox_desc                          build\kernel\components\finsh\cmd.o
__fsym_list_mailbox_name                          build\kernel\components\finsh\cmd.o
__fsym_list_memheap                               build\kernel\components\finsh\cmd.o
__fsym_list_memheap_desc                          build\kernel\components\finsh\cmd.o
__fsym_list_memheap_name                          build\kernel\components\finsh\cmd.o
__fsym_list_mempool                               build\kernel\components\finsh\cmd.o
__fsym_list_mempool_desc                          build\kernel\components\finsh\cmd.o
__fsym_list_mempool_name                          build\kernel\components\finsh\cmd.o
__fsym_list_msgqueue                              build\kernel\components\finsh\cmd.o
__fsym_list_msgqueue_desc                         build\kernel\components\finsh\cmd.o
__fsym_list_msgqueue_name                         build\kernel\components\finsh\cmd.o
__fsym_list_mutex                                 build\kernel\components\finsh\cmd.o
__fsym_list_mutex_desc                            build\kernel\components\finsh\cmd.o
__fsym_list_mutex_name                            build\kernel\components\finsh\cmd.o
__fsym_list_name                                  build\kernel\components\finsh\cmd.o
__fsym_list_sem                                   build\kernel\components\finsh\cmd.o
__fsym_list_sem_desc                              build\kernel\components\finsh\cmd.o
__fsym_list_sem_name                              build\kernel\components\finsh\cmd.o
__fsym_list_thread                                build\kernel\components\finsh\cmd.o
__fsym_list_thread_desc                           build\kernel\components\finsh\cmd.o
__fsym_list_thread_name                           build\kernel\components\finsh\cmd.o
__fsym_list_timer                                 build\kernel\components\finsh\cmd.o
__fsym_list_timer_desc                            build\kernel\components\finsh\cmd.o
__fsym_list_timer_name                            build\kernel\components\finsh\cmd.o
__fsym_pinGet                                     build\kernel\components\drivers\misc\pin.o
__fsym_pinGet_desc                                build\kernel\components\drivers\misc\pin.o
__fsym_pinGet_name                                build\kernel\components\drivers\misc\pin.o
__fsym_pinMode                                    build\kernel\components\drivers\misc\pin.o
__fsym_pinMode_desc                               build\kernel\components\drivers\misc\pin.o
__fsym_pinMode_name                               build\kernel\components\drivers\misc\pin.o
__fsym_pinRead                                    build\kernel\components\drivers\misc\pin.o
__fsym_pinRead_desc                               build\kernel\components\drivers\misc\pin.o
__fsym_pinRead_name                               build\kernel\components\drivers\misc\pin.o
__fsym_pinWrite                                   build\kernel\components\drivers\misc\pin.o
__fsym_pinWrite_desc                              build\kernel\components\drivers\misc\pin.o
__fsym_pinWrite_name                              build\kernel\components\drivers\misc\pin.o
__fsym_version                                    build\kernel\components\finsh\cmd.o
__fsym_version_desc                               build\kernel\components\finsh\cmd.o
__fsym_version_name                               build\kernel\components\finsh\cmd.o
__fsymtab_end                                     build\kernel\components\finsh\shell.o
__fsymtab_start                                   build\kernel\components\finsh\shell.o
__global_locale                                   c:/users/yaxing.chen/downloads/env_released_1.2.0/env/tools/gnu_gcc/arm_gcc/mingw/bin/../lib/gcc/arm-none-eabi/5.4.1/../../../../arm-none-eabi/lib/armv7e-m/fpu/fpv5-d16\libc.a(lib_a-locale.o)
                                                  c:/users/yaxing.chen/downloads/env_released_1.2.0/env/tools/gnu_gcc/arm_gcc/mingw/bin/../lib/gcc/arm-none-eabi/5.4.1/../../../../arm-none-eabi/lib/armv7e-m/fpu/fpv5-d16\libc.a(lib_a-wctomb_r.o)
                                                  c:/users/yaxing.chen/downloads/env_released_1.2.0/env/tools/gnu_gcc/arm_gcc/mingw/bin/../lib/gcc/arm-none-eabi/5.4.1/../../../../arm-none-eabi/lib/armv7e-m/fpu/fpv5-d16\libc.a(lib_a-wcrtomb.o)
                                                  c:/users/yaxing.chen/downloads/env_released_1.2.0/env/tools/gnu_gcc/arm_gcc/mingw/bin/../lib/gcc/arm-none-eabi/5.4.1/../../../../arm-none-eabi/lib/armv7e-m/fpu/fpv5-d16\libc.a(lib_a-mbtowc_r.o)
                                                  c:/users/yaxing.chen/downloads/env_released_1.2.0/env/tools/gnu_gcc/arm_gcc/mingw/bin/../lib/gcc/arm-none-eabi/5.4.1/../../../../arm-none-eabi/lib/armv7e-m/fpu/fpv5-d16\libc.a(lib_a-localeconv.o)
__hi0bits                                         c:/users/yaxing.chen/downloads/env_released_1.2.0/env/tools/gnu_gcc/arm_gcc/mingw/bin/../lib/gcc/arm-none-eabi/5.4.1/../../../../arm-none-eabi/lib/armv7e-m/fpu/fpv5-d16\libc.a(lib_a-mprec.o)
                                                  c:/users/yaxing.chen/downloads/env_released_1.2.0/env/tools/gnu_gcc/arm_gcc/mingw/bin/../lib/gcc/arm-none-eabi/5.4.1/../../../../arm-none-eabi/lib/armv7e-m/fpu/fpv5-d16\libc.a(lib_a-dtoa.o)
__i2b                                             c:/users/yaxing.chen/downloads/env_released_1.2.0/env/tools/gnu_gcc/arm_gcc/mingw/bin/../lib/gcc/arm-none-eabi/5.4.1/../../../../arm-none-eabi/lib/armv7e-m/fpu/fpv5-d16\libc.a(lib_a-mprec.o)
                                                  c:/users/yaxing.chen/downloads/env_released_1.2.0/env/tools/gnu_gcc/arm_gcc/mingw/bin/../lib/gcc/arm-none-eabi/5.4.1/../../../../arm-none-eabi/lib/armv7e-m/fpu/fpv5-d16\libc.a(lib_a-dtoa.o)
__isleap                                          build\kernel\components\libc\compilers\common\time.o
__isr_vector                                      libraries\MIMXRT1064\MIMXRT1064\gcc\startup_MIMXRT1064.o
__libc_init_array                                 build\kernel\components\libc\compilers\newlib\syscalls.o
__lo0bits                                         c:/users/yaxing.chen/downloads/env_released_1.2.0/env/tools/gnu_gcc/arm_gcc/mingw/bin/../lib/gcc/arm-none-eabi/5.4.1/../../../../arm-none-eabi/lib/armv7e-m/fpu/fpv5-d16\libc.a(lib_a-mprec.o)
__locale_ctype_ptr                                c:/users/yaxing.chen/downloads/env_released_1.2.0/env/tools/gnu_gcc/arm_gcc/mingw/bin/../lib/gcc/arm-none-eabi/5.4.1/../../../../arm-none-eabi/lib/armv7e-m/fpu/fpv5-d16\libc.a(lib_a-locale.o)
__locale_ctype_ptr_l                              c:/users/yaxing.chen/downloads/env_released_1.2.0/env/tools/gnu_gcc/arm_gcc/mingw/bin/../lib/gcc/arm-none-eabi/5.4.1/../../../../arm-none-eabi/lib/armv7e-m/fpu/fpv5-d16\libc.a(lib_a-locale.o)
__locale_mb_cur_max                               c:/users/yaxing.chen/downloads/env_released_1.2.0/env/tools/gnu_gcc/arm_gcc/mingw/bin/../lib/gcc/arm-none-eabi/5.4.1/../../../../arm-none-eabi/lib/armv7e-m/fpu/fpv5-d16\libc.a(lib_a-locale.o)
                                                  c:/users/yaxing.chen/downloads/env_released_1.2.0/env/tools/gnu_gcc/arm_gcc/mingw/bin/../lib/gcc/arm-none-eabi/5.4.1/../../../../arm-none-eabi/lib/armv7e-m/fpu/fpv5-d16\libc.a(lib_a-fputwc.o)
__localeconv_l                                    c:/users/yaxing.chen/downloads/env_released_1.2.0/env/tools/gnu_gcc/arm_gcc/mingw/bin/../lib/gcc/arm-none-eabi/5.4.1/../../../../arm-none-eabi/lib/armv7e-m/fpu/fpv5-d16\libc.a(lib_a-localeconv.o)
__lowest_bit_bitmap                               build\kernel\src\kservice.o
__lshift                                          c:/users/yaxing.chen/downloads/env_released_1.2.0/env/tools/gnu_gcc/arm_gcc/mingw/bin/../lib/gcc/arm-none-eabi/5.4.1/../../../../arm-none-eabi/lib/armv7e-m/fpu/fpv5-d16\libc.a(lib_a-mprec.o)
                                                  c:/users/yaxing.chen/downloads/env_released_1.2.0/env/tools/gnu_gcc/arm_gcc/mingw/bin/../lib/gcc/arm-none-eabi/5.4.1/../../../../arm-none-eabi/lib/armv7e-m/fpu/fpv5-d16\libc.a(lib_a-dtoa.o)
__mcmp                                            c:/users/yaxing.chen/downloads/env_released_1.2.0/env/tools/gnu_gcc/arm_gcc/mingw/bin/../lib/gcc/arm-none-eabi/5.4.1/../../../../arm-none-eabi/lib/armv7e-m/fpu/fpv5-d16\libc.a(lib_a-mprec.o)
                                                  c:/users/yaxing.chen/downloads/env_released_1.2.0/env/tools/gnu_gcc/arm_gcc/mingw/bin/../lib/gcc/arm-none-eabi/5.4.1/../../../../arm-none-eabi/lib/armv7e-m/fpu/fpv5-d16\libc.a(lib_a-dtoa.o)
__mdiff                                           c:/users/yaxing.chen/downloads/env_released_1.2.0/env/tools/gnu_gcc/arm_gcc/mingw/bin/../lib/gcc/arm-none-eabi/5.4.1/../../../../arm-none-eabi/lib/armv7e-m/fpu/fpv5-d16\libc.a(lib_a-mprec.o)
                                                  c:/users/yaxing.chen/downloads/env_released_1.2.0/env/tools/gnu_gcc/arm_gcc/mingw/bin/../lib/gcc/arm-none-eabi/5.4.1/../../../../arm-none-eabi/lib/armv7e-m/fpu/fpv5-d16\libc.a(lib_a-dtoa.o)
__mprec_bigtens                                   c:/users/yaxing.chen/downloads/env_released_1.2.0/env/tools/gnu_gcc/arm_gcc/mingw/bin/../lib/gcc/arm-none-eabi/5.4.1/../../../../arm-none-eabi/lib/armv7e-m/fpu/fpv5-d16\libc.a(lib_a-mprec.o)
                                                  c:/users/yaxing.chen/downloads/env_released_1.2.0/env/tools/gnu_gcc/arm_gcc/mingw/bin/../lib/gcc/arm-none-eabi/5.4.1/../../../../arm-none-eabi/lib/armv7e-m/fpu/fpv5-d16\libc.a(lib_a-dtoa.o)
__mprec_tens                                      c:/users/yaxing.chen/downloads/env_released_1.2.0/env/tools/gnu_gcc/arm_gcc/mingw/bin/../lib/gcc/arm-none-eabi/5.4.1/../../../../arm-none-eabi/lib/armv7e-m/fpu/fpv5-d16\libc.a(lib_a-mprec.o)
                                                  c:/users/yaxing.chen/downloads/env_released_1.2.0/env/tools/gnu_gcc/arm_gcc/mingw/bin/../lib/gcc/arm-none-eabi/5.4.1/../../../../arm-none-eabi/lib/armv7e-m/fpu/fpv5-d16\libc.a(lib_a-dtoa.o)
__mprec_tinytens                                  c:/users/yaxing.chen/downloads/env_released_1.2.0/env/tools/gnu_gcc/arm_gcc/mingw/bin/../lib/gcc/arm-none-eabi/5.4.1/../../../../arm-none-eabi/lib/armv7e-m/fpu/fpv5-d16\libc.a(lib_a-mprec.o)
__multadd                                         c:/users/yaxing.chen/downloads/env_released_1.2.0/env/tools/gnu_gcc/arm_gcc/mingw/bin/../lib/gcc/arm-none-eabi/5.4.1/../../../../arm-none-eabi/lib/armv7e-m/fpu/fpv5-d16\libc.a(lib_a-mprec.o)
                                                  c:/users/yaxing.chen/downloads/env_released_1.2.0/env/tools/gnu_gcc/arm_gcc/mingw/bin/../lib/gcc/arm-none-eabi/5.4.1/../../../../arm-none-eabi/lib/armv7e-m/fpu/fpv5-d16\libc.a(lib_a-dtoa.o)
__multiply                                        c:/users/yaxing.chen/downloads/env_released_1.2.0/env/tools/gnu_gcc/arm_gcc/mingw/bin/../lib/gcc/arm-none-eabi/5.4.1/../../../../arm-none-eabi/lib/armv7e-m/fpu/fpv5-d16\libc.a(lib_a-mprec.o)
                                                  c:/users/yaxing.chen/downloads/env_released_1.2.0/env/tools/gnu_gcc/arm_gcc/mingw/bin/../lib/gcc/arm-none-eabi/5.4.1/../../../../arm-none-eabi/lib/armv7e-m/fpu/fpv5-d16\libc.a(lib_a-dtoa.o)
__noncachedata_end__                              libraries\MIMXRT1064\MIMXRT1064\gcc\startup_MIMXRT1064.o
__noncachedata_init_end__                         libraries\MIMXRT1064\MIMXRT1064\gcc\startup_MIMXRT1064.o
__noncachedata_start__                            libraries\MIMXRT1064\MIMXRT1064\gcc\startup_MIMXRT1064.o
__pow5mult                                        c:/users/yaxing.chen/downloads/env_released_1.2.0/env/tools/gnu_gcc/arm_gcc/mingw/bin/../lib/gcc/arm-none-eabi/5.4.1/../../../../arm-none-eabi/lib/armv7e-m/fpu/fpv5-d16\libc.a(lib_a-mprec.o)
                                                  c:/users/yaxing.chen/downloads/env_released_1.2.0/env/tools/gnu_gcc/arm_gcc/mingw/bin/../lib/gcc/arm-none-eabi/5.4.1/../../../../arm-none-eabi/lib/armv7e-m/fpu/fpv5-d16\libc.a(lib_a-dtoa.o)
__ratio                                           c:/users/yaxing.chen/downloads/env_released_1.2.0/env/tools/gnu_gcc/arm_gcc/mingw/bin/../lib/gcc/arm-none-eabi/5.4.1/../../../../arm-none-eabi/lib/armv7e-m/fpu/fpv5-d16\libc.a(lib_a-mprec.o)
__rt_ffs                                          build\kernel\src\kservice.o
                                                  build\kernel\src\scheduler.o
__rt_init_finsh_system_init                       build\kernel\components\finsh\shell.o
__rt_init_libc_system_init                        build\kernel\components\libc\compilers\newlib\libc.o
__rt_init_rt_hw_pin_init                          libraries\drivers\drv_gpio.o
__rt_init_rt_hw_uart_init                         libraries\drivers\drv_uart.o
__rt_init_rti_board_end                           build\kernel\src\components.o
__rt_init_rti_board_start                         build\kernel\src\components.o
__rt_init_rti_end                                 build\kernel\src\components.o
__rt_init_rti_start                               build\kernel\src\components.o
__s2b                                             c:/users/yaxing.chen/downloads/env_released_1.2.0/env/tools/gnu_gcc/arm_gcc/mingw/bin/../lib/gcc/arm-none-eabi/5.4.1/../../../../arm-none-eabi/lib/armv7e-m/fpu/fpv5-d16\libc.a(lib_a-mprec.o)
__sclose                                          c:/users/yaxing.chen/downloads/env_released_1.2.0/env/tools/gnu_gcc/arm_gcc/mingw/bin/../lib/gcc/arm-none-eabi/5.4.1/../../../../arm-none-eabi/lib/armv7e-m/fpu/fpv5-d16\libc.a(lib_a-stdio.o)
                                                  c:/users/yaxing.chen/downloads/env_released_1.2.0/env/tools/gnu_gcc/arm_gcc/mingw/bin/../lib/gcc/arm-none-eabi/5.4.1/../../../../arm-none-eabi/lib/armv7e-m/fpu/fpv5-d16\libc.a(lib_a-fopen.o)
                                                  c:/users/yaxing.chen/downloads/env_released_1.2.0/env/tools/gnu_gcc/arm_gcc/mingw/bin/../lib/gcc/arm-none-eabi/5.4.1/../../../../arm-none-eabi/lib/armv7e-m/fpu/fpv5-d16\libc.a(lib_a-findfp.o)
__seofread                                        c:/users/yaxing.chen/downloads/env_released_1.2.0/env/tools/gnu_gcc/arm_gcc/mingw/bin/../lib/gcc/arm-none-eabi/5.4.1/../../../../arm-none-eabi/lib/armv7e-m/fpu/fpv5-d16\libc.a(lib_a-stdio.o)
__sflags                                          c:/users/yaxing.chen/downloads/env_released_1.2.0/env/tools/gnu_gcc/arm_gcc/mingw/bin/../lib/gcc/arm-none-eabi/5.4.1/../../../../arm-none-eabi/lib/armv7e-m/fpu/fpv5-d16\libc.a(lib_a-flags.o)
                                                  c:/users/yaxing.chen/downloads/env_released_1.2.0/env/tools/gnu_gcc/arm_gcc/mingw/bin/../lib/gcc/arm-none-eabi/5.4.1/../../../../arm-none-eabi/lib/armv7e-m/fpu/fpv5-d16\libc.a(lib_a-fopen.o)
__sflush_r                                        c:/users/yaxing.chen/downloads/env_released_1.2.0/env/tools/gnu_gcc/arm_gcc/mingw/bin/../lib/gcc/arm-none-eabi/5.4.1/../../../../arm-none-eabi/lib/armv7e-m/fpu/fpv5-d16\libc.a(lib_a-fflush.o)
                                                  c:/users/yaxing.chen/downloads/env_released_1.2.0/env/tools/gnu_gcc/arm_gcc/mingw/bin/../lib/gcc/arm-none-eabi/5.4.1/../../../../arm-none-eabi/lib/armv7e-m/fpu/fpv5-d16\libc.a(lib_a-refill.o)
                                                  c:/users/yaxing.chen/downloads/env_released_1.2.0/env/tools/gnu_gcc/arm_gcc/mingw/bin/../lib/gcc/arm-none-eabi/5.4.1/../../../../arm-none-eabi/lib/armv7e-m/fpu/fpv5-d16\libc.a(lib_a-fclose.o)
__sfmoreglue                                      c:/users/yaxing.chen/downloads/env_released_1.2.0/env/tools/gnu_gcc/arm_gcc/mingw/bin/../lib/gcc/arm-none-eabi/5.4.1/../../../../arm-none-eabi/lib/armv7e-m/fpu/fpv5-d16\libc.a(lib_a-findfp.o)
__sfp                                             c:/users/yaxing.chen/downloads/env_released_1.2.0/env/tools/gnu_gcc/arm_gcc/mingw/bin/../lib/gcc/arm-none-eabi/5.4.1/../../../../arm-none-eabi/lib/armv7e-m/fpu/fpv5-d16\libc.a(lib_a-findfp.o)
                                                  c:/users/yaxing.chen/downloads/env_released_1.2.0/env/tools/gnu_gcc/arm_gcc/mingw/bin/../lib/gcc/arm-none-eabi/5.4.1/../../../../arm-none-eabi/lib/armv7e-m/fpu/fpv5-d16\libc.a(lib_a-fopen.o)
__sfp_lock_acquire                                c:/users/yaxing.chen/downloads/env_released_1.2.0/env/tools/gnu_gcc/arm_gcc/mingw/bin/../lib/gcc/arm-none-eabi/5.4.1/../../../../arm-none-eabi/lib/armv7e-m/fpu/fpv5-d16\libc.a(lib_a-findfp.o)
                                                  c:/users/yaxing.chen/downloads/env_released_1.2.0/env/tools/gnu_gcc/arm_gcc/mingw/bin/../lib/gcc/arm-none-eabi/5.4.1/../../../../arm-none-eabi/lib/armv7e-m/fpu/fpv5-d16\libc.a(lib_a-fopen.o)
                                                  c:/users/yaxing.chen/downloads/env_released_1.2.0/env/tools/gnu_gcc/arm_gcc/mingw/bin/../lib/gcc/arm-none-eabi/5.4.1/../../../../arm-none-eabi/lib/armv7e-m/fpu/fpv5-d16\libc.a(lib_a-fclose.o)
__sfp_lock_release                                c:/users/yaxing.chen/downloads/env_released_1.2.0/env/tools/gnu_gcc/arm_gcc/mingw/bin/../lib/gcc/arm-none-eabi/5.4.1/../../../../arm-none-eabi/lib/armv7e-m/fpu/fpv5-d16\libc.a(lib_a-findfp.o)
                                                  c:/users/yaxing.chen/downloads/env_released_1.2.0/env/tools/gnu_gcc/arm_gcc/mingw/bin/../lib/gcc/arm-none-eabi/5.4.1/../../../../arm-none-eabi/lib/armv7e-m/fpu/fpv5-d16\libc.a(lib_a-fopen.o)
                                                  c:/users/yaxing.chen/downloads/env_released_1.2.0/env/tools/gnu_gcc/arm_gcc/mingw/bin/../lib/gcc/arm-none-eabi/5.4.1/../../../../arm-none-eabi/lib/armv7e-m/fpu/fpv5-d16\libc.a(lib_a-fclose.o)
__sfvwrite_r                                      c:/users/yaxing.chen/downloads/env_released_1.2.0/env/tools/gnu_gcc/arm_gcc/mingw/bin/../lib/gcc/arm-none-eabi/5.4.1/../../../../arm-none-eabi/lib/armv7e-m/fpu/fpv5-d16\libc.a(lib_a-fvwrite.o)
                                                  c:/users/yaxing.chen/downloads/env_released_1.2.0/env/tools/gnu_gcc/arm_gcc/mingw/bin/../lib/gcc/arm-none-eabi/5.4.1/../../../../arm-none-eabi/lib/armv7e-m/fpu/fpv5-d16\libc.a(lib_a-vfiprintf.o)
__sinit                                           c:/users/yaxing.chen/downloads/env_released_1.2.0/env/tools/gnu_gcc/arm_gcc/mingw/bin/../lib/gcc/arm-none-eabi/5.4.1/../../../../arm-none-eabi/lib/armv7e-m/fpu/fpv5-d16\libc.a(lib_a-findfp.o)
                                                  c:/users/yaxing.chen/downloads/env_released_1.2.0/env/tools/gnu_gcc/arm_gcc/mingw/bin/../lib/gcc/arm-none-eabi/5.4.1/../../../../arm-none-eabi/lib/armv7e-m/fpu/fpv5-d16\libc.a(lib_a-wbuf.o)
                                                  c:/users/yaxing.chen/downloads/env_released_1.2.0/env/tools/gnu_gcc/arm_gcc/mingw/bin/../lib/gcc/arm-none-eabi/5.4.1/../../../../arm-none-eabi/lib/armv7e-m/fpu/fpv5-d16\libc.a(lib_a-fputwc.o)
                                                  c:/users/yaxing.chen/downloads/env_released_1.2.0/env/tools/gnu_gcc/arm_gcc/mingw/bin/../lib/gcc/arm-none-eabi/5.4.1/../../../../arm-none-eabi/lib/armv7e-m/fpu/fpv5-d16\libc.a(lib_a-wsetup.o)
                                                  c:/users/yaxing.chen/downloads/env_released_1.2.0/env/tools/gnu_gcc/arm_gcc/mingw/bin/../lib/gcc/arm-none-eabi/5.4.1/../../../../arm-none-eabi/lib/armv7e-m/fpu/fpv5-d16\libc.a(lib_a-vfiprintf.o)
                                                  c:/users/yaxing.chen/downloads/env_released_1.2.0/env/tools/gnu_gcc/arm_gcc/mingw/bin/../lib/gcc/arm-none-eabi/5.4.1/../../../../arm-none-eabi/lib/armv7e-m/fpu/fpv5-d16\libc.a(lib_a-setvbuf.o)
                                                  c:/users/yaxing.chen/downloads/env_released_1.2.0/env/tools/gnu_gcc/arm_gcc/mingw/bin/../lib/gcc/arm-none-eabi/5.4.1/../../../../arm-none-eabi/lib/armv7e-m/fpu/fpv5-d16\libc.a(lib_a-refill.o)
                                                  c:/users/yaxing.chen/downloads/env_released_1.2.0/env/tools/gnu_gcc/arm_gcc/mingw/bin/../lib/gcc/arm-none-eabi/5.4.1/../../../../arm-none-eabi/lib/armv7e-m/fpu/fpv5-d16\libc.a(lib_a-fseeko.o)
                                                  c:/users/yaxing.chen/downloads/env_released_1.2.0/env/tools/gnu_gcc/arm_gcc/mingw/bin/../lib/gcc/arm-none-eabi/5.4.1/../../../../arm-none-eabi/lib/armv7e-m/fpu/fpv5-d16\libc.a(lib_a-fileno.o)
                                                  c:/users/yaxing.chen/downloads/env_released_1.2.0/env/tools/gnu_gcc/arm_gcc/mingw/bin/../lib/gcc/arm-none-eabi/5.4.1/../../../../arm-none-eabi/lib/armv7e-m/fpu/fpv5-d16\libc.a(lib_a-fflush.o)
                                                  c:/users/yaxing.chen/downloads/env_released_1.2.0/env/tools/gnu_gcc/arm_gcc/mingw/bin/../lib/gcc/arm-none-eabi/5.4.1/../../../../arm-none-eabi/lib/armv7e-m/fpu/fpv5-d16\libc.a(lib_a-fclose.o)
__sinit_lock_acquire                              c:/users/yaxing.chen/downloads/env_released_1.2.0/env/tools/gnu_gcc/arm_gcc/mingw/bin/../lib/gcc/arm-none-eabi/5.4.1/../../../../arm-none-eabi/lib/armv7e-m/fpu/fpv5-d16\libc.a(lib_a-findfp.o)
__sinit_lock_release                              c:/users/yaxing.chen/downloads/env_released_1.2.0/env/tools/gnu_gcc/arm_gcc/mingw/bin/../lib/gcc/arm-none-eabi/5.4.1/../../../../arm-none-eabi/lib/armv7e-m/fpu/fpv5-d16\libc.a(lib_a-findfp.o)
__smakebuf_r                                      c:/users/yaxing.chen/downloads/env_released_1.2.0/env/tools/gnu_gcc/arm_gcc/mingw/bin/../lib/gcc/arm-none-eabi/5.4.1/../../../../arm-none-eabi/lib/armv7e-m/fpu/fpv5-d16\libc.a(lib_a-makebuf.o)
                                                  c:/users/yaxing.chen/downloads/env_released_1.2.0/env/tools/gnu_gcc/arm_gcc/mingw/bin/../lib/gcc/arm-none-eabi/5.4.1/../../../../arm-none-eabi/lib/armv7e-m/fpu/fpv5-d16\libc.a(lib_a-wsetup.o)
                                                  c:/users/yaxing.chen/downloads/env_released_1.2.0/env/tools/gnu_gcc/arm_gcc/mingw/bin/../lib/gcc/arm-none-eabi/5.4.1/../../../../arm-none-eabi/lib/armv7e-m/fpu/fpv5-d16\libc.a(lib_a-refill.o)
                                                  c:/users/yaxing.chen/downloads/env_released_1.2.0/env/tools/gnu_gcc/arm_gcc/mingw/bin/../lib/gcc/arm-none-eabi/5.4.1/../../../../arm-none-eabi/lib/armv7e-m/fpu/fpv5-d16\libc.a(lib_a-fseeko.o)
__spm                                             build\kernel\components\libc\compilers\common\time.o
__sprint_r                                        c:/users/yaxing.chen/downloads/env_released_1.2.0/env/tools/gnu_gcc/arm_gcc/mingw/bin/../lib/gcc/arm-none-eabi/5.4.1/../../../../arm-none-eabi/lib/armv7e-m/fpu/fpv5-d16\libc.a(lib_a-vfiprintf.o)
__sread                                           c:/users/yaxing.chen/downloads/env_released_1.2.0/env/tools/gnu_gcc/arm_gcc/mingw/bin/../lib/gcc/arm-none-eabi/5.4.1/../../../../arm-none-eabi/lib/armv7e-m/fpu/fpv5-d16\libc.a(lib_a-stdio.o)
                                                  c:/users/yaxing.chen/downloads/env_released_1.2.0/env/tools/gnu_gcc/arm_gcc/mingw/bin/../lib/gcc/arm-none-eabi/5.4.1/../../../../arm-none-eabi/lib/armv7e-m/fpu/fpv5-d16\libc.a(lib_a-fopen.o)
                                                  c:/users/yaxing.chen/downloads/env_released_1.2.0/env/tools/gnu_gcc/arm_gcc/mingw/bin/../lib/gcc/arm-none-eabi/5.4.1/../../../../arm-none-eabi/lib/armv7e-m/fpu/fpv5-d16\libc.a(lib_a-findfp.o)
__srefill_r                                       c:/users/yaxing.chen/downloads/env_released_1.2.0/env/tools/gnu_gcc/arm_gcc/mingw/bin/../lib/gcc/arm-none-eabi/5.4.1/../../../../arm-none-eabi/lib/armv7e-m/fpu/fpv5-d16\libc.a(lib_a-refill.o)
                                                  c:/users/yaxing.chen/downloads/env_released_1.2.0/env/tools/gnu_gcc/arm_gcc/mingw/bin/../lib/gcc/arm-none-eabi/5.4.1/../../../../arm-none-eabi/lib/armv7e-m/fpu/fpv5-d16\libc.a(lib_a-fseeko.o)
__sseek                                           c:/users/yaxing.chen/downloads/env_released_1.2.0/env/tools/gnu_gcc/arm_gcc/mingw/bin/../lib/gcc/arm-none-eabi/5.4.1/../../../../arm-none-eabi/lib/armv7e-m/fpu/fpv5-d16\libc.a(lib_a-stdio.o)
                                                  c:/users/yaxing.chen/downloads/env_released_1.2.0/env/tools/gnu_gcc/arm_gcc/mingw/bin/../lib/gcc/arm-none-eabi/5.4.1/../../../../arm-none-eabi/lib/armv7e-m/fpu/fpv5-d16\libc.a(lib_a-fseeko.o)
                                                  c:/users/yaxing.chen/downloads/env_released_1.2.0/env/tools/gnu_gcc/arm_gcc/mingw/bin/../lib/gcc/arm-none-eabi/5.4.1/../../../../arm-none-eabi/lib/armv7e-m/fpu/fpv5-d16\libc.a(lib_a-fopen.o)
                                                  c:/users/yaxing.chen/downloads/env_released_1.2.0/env/tools/gnu_gcc/arm_gcc/mingw/bin/../lib/gcc/arm-none-eabi/5.4.1/../../../../arm-none-eabi/lib/armv7e-m/fpu/fpv5-d16\libc.a(lib_a-findfp.o)
__ssprint_r                                       c:/users/yaxing.chen/downloads/env_released_1.2.0/env/tools/gnu_gcc/arm_gcc/mingw/bin/../lib/gcc/arm-none-eabi/5.4.1/../../../../arm-none-eabi/lib/armv7e-m/fpu/fpv5-d16\libc.a(lib_a-svfiprintf.o)
                                                  c:/users/yaxing.chen/downloads/env_released_1.2.0/env/tools/gnu_gcc/arm_gcc/mingw/bin/../lib/gcc/arm-none-eabi/5.4.1/../../../../arm-none-eabi/lib/armv7e-m/fpu/fpv5-d16\libc.a(lib_a-svfprintf.o)
__swbuf                                           c:/users/yaxing.chen/downloads/env_released_1.2.0/env/tools/gnu_gcc/arm_gcc/mingw/bin/../lib/gcc/arm-none-eabi/5.4.1/../../../../arm-none-eabi/lib/armv7e-m/fpu/fpv5-d16\libc.a(lib_a-wbuf.o)
__swbuf_r                                         c:/users/yaxing.chen/downloads/env_released_1.2.0/env/tools/gnu_gcc/arm_gcc/mingw/bin/../lib/gcc/arm-none-eabi/5.4.1/../../../../arm-none-eabi/lib/armv7e-m/fpu/fpv5-d16\libc.a(lib_a-wbuf.o)
                                                  c:/users/yaxing.chen/downloads/env_released_1.2.0/env/tools/gnu_gcc/arm_gcc/mingw/bin/../lib/gcc/arm-none-eabi/5.4.1/../../../../arm-none-eabi/lib/armv7e-m/fpu/fpv5-d16\libc.a(lib_a-fputwc.o)
__swhatbuf_r                                      c:/users/yaxing.chen/downloads/env_released_1.2.0/env/tools/gnu_gcc/arm_gcc/mingw/bin/../lib/gcc/arm-none-eabi/5.4.1/../../../../arm-none-eabi/lib/armv7e-m/fpu/fpv5-d16\libc.a(lib_a-makebuf.o)
                                                  c:/users/yaxing.chen/downloads/env_released_1.2.0/env/tools/gnu_gcc/arm_gcc/mingw/bin/../lib/gcc/arm-none-eabi/5.4.1/../../../../arm-none-eabi/lib/armv7e-m/fpu/fpv5-d16\libc.a(lib_a-setvbuf.o)
__swrite                                          c:/users/yaxing.chen/downloads/env_released_1.2.0/env/tools/gnu_gcc/arm_gcc/mingw/bin/../lib/gcc/arm-none-eabi/5.4.1/../../../../arm-none-eabi/lib/armv7e-m/fpu/fpv5-d16\libc.a(lib_a-stdio.o)
                                                  c:/users/yaxing.chen/downloads/env_released_1.2.0/env/tools/gnu_gcc/arm_gcc/mingw/bin/../lib/gcc/arm-none-eabi/5.4.1/../../../../arm-none-eabi/lib/armv7e-m/fpu/fpv5-d16\libc.a(lib_a-fopen.o)
                                                  c:/users/yaxing.chen/downloads/env_released_1.2.0/env/tools/gnu_gcc/arm_gcc/mingw/bin/../lib/gcc/arm-none-eabi/5.4.1/../../../../arm-none-eabi/lib/armv7e-m/fpu/fpv5-d16\libc.a(lib_a-findfp.o)
__swsetup_r                                       c:/users/yaxing.chen/downloads/env_released_1.2.0/env/tools/gnu_gcc/arm_gcc/mingw/bin/../lib/gcc/arm-none-eabi/5.4.1/../../../../arm-none-eabi/lib/armv7e-m/fpu/fpv5-d16\libc.a(lib_a-wsetup.o)
                                                  c:/users/yaxing.chen/downloads/env_released_1.2.0/env/tools/gnu_gcc/arm_gcc/mingw/bin/../lib/gcc/arm-none-eabi/5.4.1/../../../../arm-none-eabi/lib/armv7e-m/fpu/fpv5-d16\libc.a(lib_a-wbuf.o)
                                                  c:/users/yaxing.chen/downloads/env_released_1.2.0/env/tools/gnu_gcc/arm_gcc/mingw/bin/../lib/gcc/arm-none-eabi/5.4.1/../../../../arm-none-eabi/lib/armv7e-m/fpu/fpv5-d16\libc.a(lib_a-fvwrite.o)
                                                  c:/users/yaxing.chen/downloads/env_released_1.2.0/env/tools/gnu_gcc/arm_gcc/mingw/bin/../lib/gcc/arm-none-eabi/5.4.1/../../../../arm-none-eabi/lib/armv7e-m/fpu/fpv5-d16\libc.a(lib_a-vfiprintf.o)
__udivmoddi4                                      c:/users/yaxing.chen/downloads/env_released_1.2.0/env/tools/gnu_gcc/arm_gcc/mingw/bin/../lib/gcc/arm-none-eabi/5.4.1/armv7e-m/fpu/fpv5-d16\libgcc.a(_udivmoddi4.o)
                                                  c:/users/yaxing.chen/downloads/env_released_1.2.0/env/tools/gnu_gcc/arm_gcc/mingw/bin/../lib/gcc/arm-none-eabi/5.4.1/armv7e-m/fpu/fpv5-d16\libgcc.a(_aeabi_uldivmod.o)
__ulp                                             c:/users/yaxing.chen/downloads/env_released_1.2.0/env/tools/gnu_gcc/arm_gcc/mingw/bin/../lib/gcc/arm-none-eabi/5.4.1/../../../../arm-none-eabi/lib/armv7e-m/fpu/fpv5-d16\libc.a(lib_a-mprec.o)
__vsymtab_end                                     build\kernel\components\finsh\shell.o
__vsymtab_start                                   build\kernel\components\finsh\shell.o
__wqueue_default_wake                             build\kernel\components\drivers\src\waitqueue.o
_calloc_r                                         build\kernel\components\libc\compilers\newlib\syscalls.o
                                                  c:/users/yaxing.chen/downloads/env_released_1.2.0/env/tools/gnu_gcc/arm_gcc/mingw/bin/../lib/gcc/arm-none-eabi/5.4.1/../../../../arm-none-eabi/lib/armv7e-m/fpu/fpv5-d16\libc.a(lib_a-mprec.o)
_cleanup                                          c:/users/yaxing.chen/downloads/env_released_1.2.0/env/tools/gnu_gcc/arm_gcc/mingw/bin/../lib/gcc/arm-none-eabi/5.4.1/../../../../arm-none-eabi/lib/armv7e-m/fpu/fpv5-d16\libc.a(lib_a-findfp.o)
_cleanup_r                                        c:/users/yaxing.chen/downloads/env_released_1.2.0/env/tools/gnu_gcc/arm_gcc/mingw/bin/../lib/gcc/arm-none-eabi/5.4.1/../../../../arm-none-eabi/lib/armv7e-m/fpu/fpv5-d16\libc.a(lib_a-findfp.o)
                                                  c:/users/yaxing.chen/downloads/env_released_1.2.0/env/tools/gnu_gcc/arm_gcc/mingw/bin/../lib/gcc/arm-none-eabi/5.4.1/../../../../arm-none-eabi/lib/armv7e-m/fpu/fpv5-d16\libc.a(lib_a-makebuf.o)
_close_r                                          build\kernel\components\libc\compilers\newlib\syscalls.o
                                                  c:/users/yaxing.chen/downloads/env_released_1.2.0/env/tools/gnu_gcc/arm_gcc/mingw/bin/../lib/gcc/arm-none-eabi/5.4.1/../../../../arm-none-eabi/lib/armv7e-m/fpu/fpv5-d16\libc.a(lib_a-stdio.o)
_ctype_                                           c:/users/yaxing.chen/downloads/env_released_1.2.0/env/tools/gnu_gcc/arm_gcc/mingw/bin/../lib/gcc/arm-none-eabi/5.4.1/../../../../arm-none-eabi/lib/armv7e-m/fpu/fpv5-d16\libc.a(lib_a-ctype_.o)
                                                  c:/users/yaxing.chen/downloads/env_released_1.2.0/env/tools/gnu_gcc/arm_gcc/mingw/bin/../lib/gcc/arm-none-eabi/5.4.1/../../../../arm-none-eabi/lib/armv7e-m/fpu/fpv5-d16\libc.a(lib_a-locale.o)
_dtoa_r                                           c:/users/yaxing.chen/downloads/env_released_1.2.0/env/tools/gnu_gcc/arm_gcc/mingw/bin/../lib/gcc/arm-none-eabi/5.4.1/../../../../arm-none-eabi/lib/armv7e-m/fpu/fpv5-d16\libc.a(lib_a-dtoa.o)
                                                  c:/users/yaxing.chen/downloads/env_released_1.2.0/env/tools/gnu_gcc/arm_gcc/mingw/bin/../lib/gcc/arm-none-eabi/5.4.1/../../../../arm-none-eabi/lib/armv7e-m/fpu/fpv5-d16\libc.a(lib_a-svfprintf.o)
_execve_r                                         build\kernel\components\libc\compilers\newlib\syscalls.o
_fclose_r                                         c:/users/yaxing.chen/downloads/env_released_1.2.0/env/tools/gnu_gcc/arm_gcc/mingw/bin/../lib/gcc/arm-none-eabi/5.4.1/../../../../arm-none-eabi/lib/armv7e-m/fpu/fpv5-d16\libc.a(lib_a-fclose.o)
                                                  c:/users/yaxing.chen/downloads/env_released_1.2.0/env/tools/gnu_gcc/arm_gcc/mingw/bin/../lib/gcc/arm-none-eabi/5.4.1/../../../../arm-none-eabi/lib/armv7e-m/fpu/fpv5-d16\libc.a(lib_a-findfp.o)
_fcntl_r                                          build\kernel\components\libc\compilers\newlib\syscalls.o
_fflush_r                                         c:/users/yaxing.chen/downloads/env_released_1.2.0/env/tools/gnu_gcc/arm_gcc/mingw/bin/../lib/gcc/arm-none-eabi/5.4.1/../../../../arm-none-eabi/lib/armv7e-m/fpu/fpv5-d16\libc.a(lib_a-fflush.o)
                                                  c:/users/yaxing.chen/downloads/env_released_1.2.0/env/tools/gnu_gcc/arm_gcc/mingw/bin/../lib/gcc/arm-none-eabi/5.4.1/../../../../arm-none-eabi/lib/armv7e-m/fpu/fpv5-d16\libc.a(lib_a-wbuf.o)
                                                  c:/users/yaxing.chen/downloads/env_released_1.2.0/env/tools/gnu_gcc/arm_gcc/mingw/bin/../lib/gcc/arm-none-eabi/5.4.1/../../../../arm-none-eabi/lib/armv7e-m/fpu/fpv5-d16\libc.a(lib_a-fvwrite.o)
                                                  c:/users/yaxing.chen/downloads/env_released_1.2.0/env/tools/gnu_gcc/arm_gcc/mingw/bin/../lib/gcc/arm-none-eabi/5.4.1/../../../../arm-none-eabi/lib/armv7e-m/fpu/fpv5-d16\libc.a(lib_a-vfiprintf.o)
                                                  c:/users/yaxing.chen/downloads/env_released_1.2.0/env/tools/gnu_gcc/arm_gcc/mingw/bin/../lib/gcc/arm-none-eabi/5.4.1/../../../../arm-none-eabi/lib/armv7e-m/fpu/fpv5-d16\libc.a(lib_a-setvbuf.o)
                                                  c:/users/yaxing.chen/downloads/env_released_1.2.0/env/tools/gnu_gcc/arm_gcc/mingw/bin/../lib/gcc/arm-none-eabi/5.4.1/../../../../arm-none-eabi/lib/armv7e-m/fpu/fpv5-d16\libc.a(lib_a-refill.o)
                                                  c:/users/yaxing.chen/downloads/env_released_1.2.0/env/tools/gnu_gcc/arm_gcc/mingw/bin/../lib/gcc/arm-none-eabi/5.4.1/../../../../arm-none-eabi/lib/armv7e-m/fpu/fpv5-d16\libc.a(lib_a-fseeko.o)
_fiprintf_r                                       c:/users/yaxing.chen/downloads/env_released_1.2.0/env/tools/gnu_gcc/arm_gcc/mingw/bin/../lib/gcc/arm-none-eabi/5.4.1/../../../../arm-none-eabi/lib/armv7e-m/fpu/fpv5-d16\libc.a(lib_a-fiprintf.o)
_fopen_r                                          c:/users/yaxing.chen/downloads/env_released_1.2.0/env/tools/gnu_gcc/arm_gcc/mingw/bin/../lib/gcc/arm-none-eabi/5.4.1/../../../../arm-none-eabi/lib/armv7e-m/fpu/fpv5-d16\libc.a(lib_a-fopen.o)
_fork_r                                           build\kernel\components\libc\compilers\newlib\syscalls.o
_fputwc_r                                         c:/users/yaxing.chen/downloads/env_released_1.2.0/env/tools/gnu_gcc/arm_gcc/mingw/bin/../lib/gcc/arm-none-eabi/5.4.1/../../../../arm-none-eabi/lib/armv7e-m/fpu/fpv5-d16\libc.a(lib_a-fputwc.o)
                                                  c:/users/yaxing.chen/downloads/env_released_1.2.0/env/tools/gnu_gcc/arm_gcc/mingw/bin/../lib/gcc/arm-none-eabi/5.4.1/../../../../arm-none-eabi/lib/armv7e-m/fpu/fpv5-d16\libc.a(lib_a-vfiprintf.o)
_free_r                                           build\kernel\components\libc\compilers\newlib\syscalls.o
                                                  c:/users/yaxing.chen/downloads/env_released_1.2.0/env/tools/gnu_gcc/arm_gcc/mingw/bin/../lib/gcc/arm-none-eabi/5.4.1/../../../../arm-none-eabi/lib/armv7e-m/fpu/fpv5-d16\libc.a(lib_a-svfiprintf.o)
                                                  c:/users/yaxing.chen/downloads/env_released_1.2.0/env/tools/gnu_gcc/arm_gcc/mingw/bin/../lib/gcc/arm-none-eabi/5.4.1/../../../../arm-none-eabi/lib/armv7e-m/fpu/fpv5-d16\libc.a(lib_a-fvwrite.o)
                                                  c:/users/yaxing.chen/downloads/env_released_1.2.0/env/tools/gnu_gcc/arm_gcc/mingw/bin/../lib/gcc/arm-none-eabi/5.4.1/../../../../arm-none-eabi/lib/armv7e-m/fpu/fpv5-d16\libc.a(lib_a-wsetup.o)
                                                  c:/users/yaxing.chen/downloads/env_released_1.2.0/env/tools/gnu_gcc/arm_gcc/mingw/bin/../lib/gcc/arm-none-eabi/5.4.1/../../../../arm-none-eabi/lib/armv7e-m/fpu/fpv5-d16\libc.a(lib_a-setvbuf.o)
                                                  c:/users/yaxing.chen/downloads/env_released_1.2.0/env/tools/gnu_gcc/arm_gcc/mingw/bin/../lib/gcc/arm-none-eabi/5.4.1/../../../../arm-none-eabi/lib/armv7e-m/fpu/fpv5-d16\libc.a(lib_a-refill.o)
                                                  c:/users/yaxing.chen/downloads/env_released_1.2.0/env/tools/gnu_gcc/arm_gcc/mingw/bin/../lib/gcc/arm-none-eabi/5.4.1/../../../../arm-none-eabi/lib/armv7e-m/fpu/fpv5-d16\libc.a(lib_a-malloc.o)
                                                  c:/users/yaxing.chen/downloads/env_released_1.2.0/env/tools/gnu_gcc/arm_gcc/mingw/bin/../lib/gcc/arm-none-eabi/5.4.1/../../../../arm-none-eabi/lib/armv7e-m/fpu/fpv5-d16\libc.a(lib_a-fseeko.o)
                                                  c:/users/yaxing.chen/downloads/env_released_1.2.0/env/tools/gnu_gcc/arm_gcc/mingw/bin/../lib/gcc/arm-none-eabi/5.4.1/../../../../arm-none-eabi/lib/armv7e-m/fpu/fpv5-d16\libc.a(lib_a-fflush.o)
                                                  c:/users/yaxing.chen/downloads/env_released_1.2.0/env/tools/gnu_gcc/arm_gcc/mingw/bin/../lib/gcc/arm-none-eabi/5.4.1/../../../../arm-none-eabi/lib/armv7e-m/fpu/fpv5-d16\libc.a(lib_a-fclose.o)
_fseek_r                                          c:/users/yaxing.chen/downloads/env_released_1.2.0/env/tools/gnu_gcc/arm_gcc/mingw/bin/../lib/gcc/arm-none-eabi/5.4.1/../../../../arm-none-eabi/lib/armv7e-m/fpu/fpv5-d16\libc.a(lib_a-fseek.o)
                                                  c:/users/yaxing.chen/downloads/env_released_1.2.0/env/tools/gnu_gcc/arm_gcc/mingw/bin/../lib/gcc/arm-none-eabi/5.4.1/../../../../arm-none-eabi/lib/armv7e-m/fpu/fpv5-d16\libc.a(lib_a-fopen.o)
_fseeko_r                                         c:/users/yaxing.chen/downloads/env_released_1.2.0/env/tools/gnu_gcc/arm_gcc/mingw/bin/../lib/gcc/arm-none-eabi/5.4.1/../../../../arm-none-eabi/lib/armv7e-m/fpu/fpv5-d16\libc.a(lib_a-fseeko.o)
                                                  c:/users/yaxing.chen/downloads/env_released_1.2.0/env/tools/gnu_gcc/arm_gcc/mingw/bin/../lib/gcc/arm-none-eabi/5.4.1/../../../../arm-none-eabi/lib/armv7e-m/fpu/fpv5-d16\libc.a(lib_a-fseek.o)
_fstat_r                                          build\kernel\components\libc\compilers\newlib\syscalls.o
                                                  c:/users/yaxing.chen/downloads/env_released_1.2.0/env/tools/gnu_gcc/arm_gcc/mingw/bin/../lib/gcc/arm-none-eabi/5.4.1/../../../../arm-none-eabi/lib/armv7e-m/fpu/fpv5-d16\libc.a(lib_a-makebuf.o)
                                                  c:/users/yaxing.chen/downloads/env_released_1.2.0/env/tools/gnu_gcc/arm_gcc/mingw/bin/../lib/gcc/arm-none-eabi/5.4.1/../../../../arm-none-eabi/lib/armv7e-m/fpu/fpv5-d16\libc.a(lib_a-fseeko.o)
_fwalk                                            c:/users/yaxing.chen/downloads/env_released_1.2.0/env/tools/gnu_gcc/arm_gcc/mingw/bin/../lib/gcc/arm-none-eabi/5.4.1/../../../../arm-none-eabi/lib/armv7e-m/fpu/fpv5-d16\libc.a(lib_a-fwalk.o)
                                                  c:/users/yaxing.chen/downloads/env_released_1.2.0/env/tools/gnu_gcc/arm_gcc/mingw/bin/../lib/gcc/arm-none-eabi/5.4.1/../../../../arm-none-eabi/lib/armv7e-m/fpu/fpv5-d16\libc.a(lib_a-refill.o)
                                                  c:/users/yaxing.chen/downloads/env_released_1.2.0/env/tools/gnu_gcc/arm_gcc/mingw/bin/../lib/gcc/arm-none-eabi/5.4.1/../../../../arm-none-eabi/lib/armv7e-m/fpu/fpv5-d16\libc.a(lib_a-findfp.o)
_fwalk_reent                                      c:/users/yaxing.chen/downloads/env_released_1.2.0/env/tools/gnu_gcc/arm_gcc/mingw/bin/../lib/gcc/arm-none-eabi/5.4.1/../../../../arm-none-eabi/lib/armv7e-m/fpu/fpv5-d16\libc.a(lib_a-fwalk.o)
                                                  c:/users/yaxing.chen/downloads/env_released_1.2.0/env/tools/gnu_gcc/arm_gcc/mingw/bin/../lib/gcc/arm-none-eabi/5.4.1/../../../../arm-none-eabi/lib/armv7e-m/fpu/fpv5-d16\libc.a(lib_a-findfp.o)
                                                  c:/users/yaxing.chen/downloads/env_released_1.2.0/env/tools/gnu_gcc/arm_gcc/mingw/bin/../lib/gcc/arm-none-eabi/5.4.1/../../../../arm-none-eabi/lib/armv7e-m/fpu/fpv5-d16\libc.a(lib_a-fflush.o)
_getpid_r                                         build\kernel\components\libc\compilers\newlib\syscalls.o
_gettimeofday_r                                   build\kernel\components\libc\compilers\newlib\syscalls.o
_global_impure_ptr                                c:/users/yaxing.chen/downloads/env_released_1.2.0/env/tools/gnu_gcc/arm_gcc/mingw/bin/../lib/gcc/arm-none-eabi/5.4.1/../../../../arm-none-eabi/lib/armv7e-m/fpu/fpv5-d16\libc.a(lib_a-impure.o)
                                                  c:/users/yaxing.chen/downloads/env_released_1.2.0/env/tools/gnu_gcc/arm_gcc/mingw/bin/../lib/gcc/arm-none-eabi/5.4.1/../../../../arm-none-eabi/lib/armv7e-m/fpu/fpv5-d16\libc.a(lib_a-refill.o)
                                                  c:/users/yaxing.chen/downloads/env_released_1.2.0/env/tools/gnu_gcc/arm_gcc/mingw/bin/../lib/gcc/arm-none-eabi/5.4.1/../../../../arm-none-eabi/lib/armv7e-m/fpu/fpv5-d16\libc.a(lib_a-findfp.o)
                                                  c:/users/yaxing.chen/downloads/env_released_1.2.0/env/tools/gnu_gcc/arm_gcc/mingw/bin/../lib/gcc/arm-none-eabi/5.4.1/../../../../arm-none-eabi/lib/armv7e-m/fpu/fpv5-d16\libc.a(lib_a-fflush.o)
                                                  build\kernel\components\libc\compilers\newlib\stdio.o
_impure_ptr                                       c:/users/yaxing.chen/downloads/env_released_1.2.0/env/tools/gnu_gcc/arm_gcc/mingw/bin/../lib/gcc/arm-none-eabi/5.4.1/../../../../arm-none-eabi/lib/armv7e-m/fpu/fpv5-d16\libc.a(lib_a-impure.o)
                                                  c:/users/yaxing.chen/downloads/env_released_1.2.0/env/tools/gnu_gcc/arm_gcc/mingw/bin/../lib/gcc/arm-none-eabi/5.4.1/../../../../arm-none-eabi/lib/armv7e-m/fpu/fpv5-d16\libc.a(lib_a-wctomb_r.o)
                                                  c:/users/yaxing.chen/downloads/env_released_1.2.0/env/tools/gnu_gcc/arm_gcc/mingw/bin/../lib/gcc/arm-none-eabi/5.4.1/../../../../arm-none-eabi/lib/armv7e-m/fpu/fpv5-d16\libc.a(lib_a-wcrtomb.o)
                                                  c:/users/yaxing.chen/downloads/env_released_1.2.0/env/tools/gnu_gcc/arm_gcc/mingw/bin/../lib/gcc/arm-none-eabi/5.4.1/../../../../arm-none-eabi/lib/armv7e-m/fpu/fpv5-d16\libc.a(lib_a-wbuf.o)
                                                  c:/users/yaxing.chen/downloads/env_released_1.2.0/env/tools/gnu_gcc/arm_gcc/mingw/bin/../lib/gcc/arm-none-eabi/5.4.1/../../../../arm-none-eabi/lib/armv7e-m/fpu/fpv5-d16\libc.a(lib_a-mbtowc_r.o)
                                                  c:/users/yaxing.chen/downloads/env_released_1.2.0/env/tools/gnu_gcc/arm_gcc/mingw/bin/../lib/gcc/arm-none-eabi/5.4.1/../../../../arm-none-eabi/lib/armv7e-m/fpu/fpv5-d16\libc.a(lib_a-localeconv.o)
                                                  c:/users/yaxing.chen/downloads/env_released_1.2.0/env/tools/gnu_gcc/arm_gcc/mingw/bin/../lib/gcc/arm-none-eabi/5.4.1/../../../../arm-none-eabi/lib/armv7e-m/fpu/fpv5-d16\libc.a(lib_a-locale.o)
                                                  c:/users/yaxing.chen/downloads/env_released_1.2.0/env/tools/gnu_gcc/arm_gcc/mingw/bin/../lib/gcc/arm-none-eabi/5.4.1/../../../../arm-none-eabi/lib/armv7e-m/fpu/fpv5-d16\libc.a(lib_a-fputwc.o)
                                                  c:/users/yaxing.chen/downloads/env_released_1.2.0/env/tools/gnu_gcc/arm_gcc/mingw/bin/../lib/gcc/arm-none-eabi/5.4.1/../../../../arm-none-eabi/lib/armv7e-m/fpu/fpv5-d16\libc.a(lib_a-wsetup.o)
                                                  c:/users/yaxing.chen/downloads/env_released_1.2.0/env/tools/gnu_gcc/arm_gcc/mingw/bin/../lib/gcc/arm-none-eabi/5.4.1/../../../../arm-none-eabi/lib/armv7e-m/fpu/fpv5-d16\libc.a(lib_a-vfiprintf.o)
                                                  c:/users/yaxing.chen/downloads/env_released_1.2.0/env/tools/gnu_gcc/arm_gcc/mingw/bin/../lib/gcc/arm-none-eabi/5.4.1/../../../../arm-none-eabi/lib/armv7e-m/fpu/fpv5-d16\libc.a(lib_a-snprintf.o)
                                                  c:/users/yaxing.chen/downloads/env_released_1.2.0/env/tools/gnu_gcc/arm_gcc/mingw/bin/../lib/gcc/arm-none-eabi/5.4.1/../../../../arm-none-eabi/lib/armv7e-m/fpu/fpv5-d16\libc.a(lib_a-setvbuf.o)
                                                  c:/users/yaxing.chen/downloads/env_released_1.2.0/env/tools/gnu_gcc/arm_gcc/mingw/bin/../lib/gcc/arm-none-eabi/5.4.1/../../../../arm-none-eabi/lib/armv7e-m/fpu/fpv5-d16\libc.a(lib_a-malloc.o)
                                                  c:/users/yaxing.chen/downloads/env_released_1.2.0/env/tools/gnu_gcc/arm_gcc/mingw/bin/../lib/gcc/arm-none-eabi/5.4.1/../../../../arm-none-eabi/lib/armv7e-m/fpu/fpv5-d16\libc.a(lib_a-fseeko.o)
                                                  c:/users/yaxing.chen/downloads/env_released_1.2.0/env/tools/gnu_gcc/arm_gcc/mingw/bin/../lib/gcc/arm-none-eabi/5.4.1/../../../../arm-none-eabi/lib/armv7e-m/fpu/fpv5-d16\libc.a(lib_a-fseek.o)
                                                  c:/users/yaxing.chen/downloads/env_released_1.2.0/env/tools/gnu_gcc/arm_gcc/mingw/bin/../lib/gcc/arm-none-eabi/5.4.1/../../../../arm-none-eabi/lib/armv7e-m/fpu/fpv5-d16\libc.a(lib_a-fopen.o)
                                                  c:/users/yaxing.chen/downloads/env_released_1.2.0/env/tools/gnu_gcc/arm_gcc/mingw/bin/../lib/gcc/arm-none-eabi/5.4.1/../../../../arm-none-eabi/lib/armv7e-m/fpu/fpv5-d16\libc.a(lib_a-fiprintf.o)
                                                  c:/users/yaxing.chen/downloads/env_released_1.2.0/env/tools/gnu_gcc/arm_gcc/mingw/bin/../lib/gcc/arm-none-eabi/5.4.1/../../../../arm-none-eabi/lib/armv7e-m/fpu/fpv5-d16\libc.a(lib_a-findfp.o)
                                                  c:/users/yaxing.chen/downloads/env_released_1.2.0/env/tools/gnu_gcc/arm_gcc/mingw/bin/../lib/gcc/arm-none-eabi/5.4.1/../../../../arm-none-eabi/lib/armv7e-m/fpu/fpv5-d16\libc.a(lib_a-fileno.o)
                                                  c:/users/yaxing.chen/downloads/env_released_1.2.0/env/tools/gnu_gcc/arm_gcc/mingw/bin/../lib/gcc/arm-none-eabi/5.4.1/../../../../arm-none-eabi/lib/armv7e-m/fpu/fpv5-d16\libc.a(lib_a-fflush.o)
                                                  c:/users/yaxing.chen/downloads/env_released_1.2.0/env/tools/gnu_gcc/arm_gcc/mingw/bin/../lib/gcc/arm-none-eabi/5.4.1/../../../../arm-none-eabi/lib/armv7e-m/fpu/fpv5-d16\libc.a(lib_a-fclose.o)
                                                  c:/users/yaxing.chen/downloads/env_released_1.2.0/env/tools/gnu_gcc/arm_gcc/mingw/bin/../lib/gcc/arm-none-eabi/5.4.1/../../../../arm-none-eabi/lib/armv7e-m/fpu/fpv5-d16\libc.a(lib_a-assert.o)
                                                  build\kernel\components\libc\compilers\newlib\syscalls.o
_isatty_r                                         build\kernel\components\libc\compilers\newlib\syscalls.o
                                                  c:/users/yaxing.chen/downloads/env_released_1.2.0/env/tools/gnu_gcc/arm_gcc/mingw/bin/../lib/gcc/arm-none-eabi/5.4.1/../../../../arm-none-eabi/lib/armv7e-m/fpu/fpv5-d16\libc.a(lib_a-makebuf.o)
_kill_r                                           build\kernel\components\libc\compilers\newlib\syscalls.o
_link_r                                           build\kernel\components\libc\compilers\newlib\syscalls.o
_localeconv_r                                     c:/users/yaxing.chen/downloads/env_released_1.2.0/env/tools/gnu_gcc/arm_gcc/mingw/bin/../lib/gcc/arm-none-eabi/5.4.1/../../../../arm-none-eabi/lib/armv7e-m/fpu/fpv5-d16\libc.a(lib_a-localeconv.o)
                                                  c:/users/yaxing.chen/downloads/env_released_1.2.0/env/tools/gnu_gcc/arm_gcc/mingw/bin/../lib/gcc/arm-none-eabi/5.4.1/../../../../arm-none-eabi/lib/armv7e-m/fpu/fpv5-d16\libc.a(lib_a-svfprintf.o)
_lseek_r                                          build\kernel\components\libc\compilers\newlib\syscalls.o
                                                  c:/users/yaxing.chen/downloads/env_released_1.2.0/env/tools/gnu_gcc/arm_gcc/mingw/bin/../lib/gcc/arm-none-eabi/5.4.1/../../../../arm-none-eabi/lib/armv7e-m/fpu/fpv5-d16\libc.a(lib_a-stdio.o)
_malloc_r                                         build\kernel\components\libc\compilers\newlib\syscalls.o
                                                  c:/users/yaxing.chen/downloads/env_released_1.2.0/env/tools/gnu_gcc/arm_gcc/mingw/bin/../lib/gcc/arm-none-eabi/5.4.1/../../../../arm-none-eabi/lib/armv7e-m/fpu/fpv5-d16\libc.a(lib_a-svfiprintf.o)
                                                  c:/users/yaxing.chen/downloads/env_released_1.2.0/env/tools/gnu_gcc/arm_gcc/mingw/bin/../lib/gcc/arm-none-eabi/5.4.1/../../../../arm-none-eabi/lib/armv7e-m/fpu/fpv5-d16\libc.a(lib_a-fvwrite.o)
                                                  c:/users/yaxing.chen/downloads/env_released_1.2.0/env/tools/gnu_gcc/arm_gcc/mingw/bin/../lib/gcc/arm-none-eabi/5.4.1/../../../../arm-none-eabi/lib/armv7e-m/fpu/fpv5-d16\libc.a(lib_a-svfprintf.o)
                                                  c:/users/yaxing.chen/downloads/env_released_1.2.0/env/tools/gnu_gcc/arm_gcc/mingw/bin/../lib/gcc/arm-none-eabi/5.4.1/../../../../arm-none-eabi/lib/armv7e-m/fpu/fpv5-d16\libc.a(lib_a-malloc.o)
                                                  c:/users/yaxing.chen/downloads/env_released_1.2.0/env/tools/gnu_gcc/arm_gcc/mingw/bin/../lib/gcc/arm-none-eabi/5.4.1/../../../../arm-none-eabi/lib/armv7e-m/fpu/fpv5-d16\libc.a(lib_a-makebuf.o)
                                                  c:/users/yaxing.chen/downloads/env_released_1.2.0/env/tools/gnu_gcc/arm_gcc/mingw/bin/../lib/gcc/arm-none-eabi/5.4.1/../../../../arm-none-eabi/lib/armv7e-m/fpu/fpv5-d16\libc.a(lib_a-findfp.o)
_mbtowc_r                                         c:/users/yaxing.chen/downloads/env_released_1.2.0/env/tools/gnu_gcc/arm_gcc/mingw/bin/../lib/gcc/arm-none-eabi/5.4.1/../../../../arm-none-eabi/lib/armv7e-m/fpu/fpv5-d16\libc.a(lib_a-mbtowc_r.o)
_mkdir_r                                          build\kernel\components\libc\compilers\newlib\syscalls.o
_mprec_log10                                      c:/users/yaxing.chen/downloads/env_released_1.2.0/env/tools/gnu_gcc/arm_gcc/mingw/bin/../lib/gcc/arm-none-eabi/5.4.1/../../../../arm-none-eabi/lib/armv7e-m/fpu/fpv5-d16\libc.a(lib_a-mprec.o)
_open_r                                           build\kernel\components\libc\compilers\newlib\syscalls.o
                                                  c:/users/yaxing.chen/downloads/env_released_1.2.0/env/tools/gnu_gcc/arm_gcc/mingw/bin/../lib/gcc/arm-none-eabi/5.4.1/../../../../arm-none-eabi/lib/armv7e-m/fpu/fpv5-d16\libc.a(lib_a-fopen.o)
_read_r                                           build\kernel\components\libc\compilers\newlib\syscalls.o
                                                  c:/users/yaxing.chen/downloads/env_released_1.2.0/env/tools/gnu_gcc/arm_gcc/mingw/bin/../lib/gcc/arm-none-eabi/5.4.1/../../../../arm-none-eabi/lib/armv7e-m/fpu/fpv5-d16\libc.a(lib_a-stdio.o)
_realloc_r                                        build\kernel\components\libc\compilers\newlib\syscalls.o
                                                  c:/users/yaxing.chen/downloads/env_released_1.2.0/env/tools/gnu_gcc/arm_gcc/mingw/bin/../lib/gcc/arm-none-eabi/5.4.1/../../../../arm-none-eabi/lib/armv7e-m/fpu/fpv5-d16\libc.a(lib_a-svfiprintf.o)
                                                  c:/users/yaxing.chen/downloads/env_released_1.2.0/env/tools/gnu_gcc/arm_gcc/mingw/bin/../lib/gcc/arm-none-eabi/5.4.1/../../../../arm-none-eabi/lib/armv7e-m/fpu/fpv5-d16\libc.a(lib_a-fvwrite.o)
_rename_r                                         build\kernel\components\libc\compilers\newlib\syscalls.o
_rt_errno                                         build\kernel\src\kservice.o
                                                  build\kernel\components\libc\compilers\newlib\syscalls.o
_sbrk_r                                           build\kernel\components\libc\compilers\newlib\syscalls.o
_setlocale_r                                      c:/users/yaxing.chen/downloads/env_released_1.2.0/env/tools/gnu_gcc/arm_gcc/mingw/bin/../lib/gcc/arm-none-eabi/5.4.1/../../../../arm-none-eabi/lib/armv7e-m/fpu/fpv5-d16\libc.a(lib_a-locale.o)
_snprintf_r                                       c:/users/yaxing.chen/downloads/env_released_1.2.0/env/tools/gnu_gcc/arm_gcc/mingw/bin/../lib/gcc/arm-none-eabi/5.4.1/../../../../arm-none-eabi/lib/armv7e-m/fpu/fpv5-d16\libc.a(lib_a-snprintf.o)
_stat_r                                           build\kernel\components\libc\compilers\newlib\syscalls.o
_svfiprintf_r                                     c:/users/yaxing.chen/downloads/env_released_1.2.0/env/tools/gnu_gcc/arm_gcc/mingw/bin/../lib/gcc/arm-none-eabi/5.4.1/../../../../arm-none-eabi/lib/armv7e-m/fpu/fpv5-d16\libc.a(lib_a-svfiprintf.o)
_svfprintf_r                                      c:/users/yaxing.chen/downloads/env_released_1.2.0/env/tools/gnu_gcc/arm_gcc/mingw/bin/../lib/gcc/arm-none-eabi/5.4.1/../../../../arm-none-eabi/lib/armv7e-m/fpu/fpv5-d16\libc.a(lib_a-svfprintf.o)
                                                  c:/users/yaxing.chen/downloads/env_released_1.2.0/env/tools/gnu_gcc/arm_gcc/mingw/bin/../lib/gcc/arm-none-eabi/5.4.1/../../../../arm-none-eabi/lib/armv7e-m/fpu/fpv5-d16\libc.a(lib_a-snprintf.o)
_syscall_table_begin                              build\kernel\components\finsh\shell.o
                                                  build\kernel\components\finsh\msh.o
                                                  build\kernel\components\finsh\cmd.o
_syscall_table_end                                build\kernel\components\finsh\shell.o
                                                  build\kernel\components\finsh\msh.o
                                                  build\kernel\components\finsh\cmd.o
_system                                           build\kernel\components\libc\compilers\newlib\syscalls.o
_sysvar_table_begin                               build\kernel\components\finsh\shell.o
_sysvar_table_end                                 build\kernel\components\finsh\shell.o
_times_r                                          build\kernel\components\libc\compilers\newlib\syscalls.o
_timevalue                                        build\kernel\components\libc\compilers\newlib\syscalls.o
_unlink_r                                         build\kernel\components\libc\compilers\newlib\syscalls.o
_vfiprintf_r                                      c:/users/yaxing.chen/downloads/env_released_1.2.0/env/tools/gnu_gcc/arm_gcc/mingw/bin/../lib/gcc/arm-none-eabi/5.4.1/../../../../arm-none-eabi/lib/armv7e-m/fpu/fpv5-d16\libc.a(lib_a-vfiprintf.o)
                                                  c:/users/yaxing.chen/downloads/env_released_1.2.0/env/tools/gnu_gcc/arm_gcc/mingw/bin/../lib/gcc/arm-none-eabi/5.4.1/../../../../arm-none-eabi/lib/armv7e-m/fpu/fpv5-d16\libc.a(lib_a-fiprintf.o)
_wait_r                                           build\kernel\components\libc\compilers\newlib\syscalls.o
_wcrtomb_r                                        c:/users/yaxing.chen/downloads/env_released_1.2.0/env/tools/gnu_gcc/arm_gcc/mingw/bin/../lib/gcc/arm-none-eabi/5.4.1/../../../../arm-none-eabi/lib/armv7e-m/fpu/fpv5-d16\libc.a(lib_a-wcrtomb.o)
                                                  c:/users/yaxing.chen/downloads/env_released_1.2.0/env/tools/gnu_gcc/arm_gcc/mingw/bin/../lib/gcc/arm-none-eabi/5.4.1/../../../../arm-none-eabi/lib/armv7e-m/fpu/fpv5-d16\libc.a(lib_a-fputwc.o)
_wctomb_r                                         c:/users/yaxing.chen/downloads/env_released_1.2.0/env/tools/gnu_gcc/arm_gcc/mingw/bin/../lib/gcc/arm-none-eabi/5.4.1/../../../../arm-none-eabi/lib/armv7e-m/fpu/fpv5-d16\libc.a(lib_a-wctomb_r.o)
_write_r                                          build\kernel\components\libc\compilers\newlib\syscalls.o
                                                  c:/users/yaxing.chen/downloads/env_released_1.2.0/env/tools/gnu_gcc/arm_gcc/mingw/bin/../lib/gcc/arm-none-eabi/5.4.1/../../../../arm-none-eabi/lib/armv7e-m/fpu/fpv5-d16\libc.a(lib_a-stdio.o)
abort                                             build\kernel\components\libc\compilers\newlib\syscalls.o
                                                  c:/users/yaxing.chen/downloads/env_released_1.2.0/env/tools/gnu_gcc/arm_gcc/mingw/bin/../lib/gcc/arm-none-eabi/5.4.1/../../../../arm-none-eabi/lib/armv7e-m/fpu/fpv5-d16\libc.a(lib_a-assert.o)
armPllConfig_BOARD_BootClockRUN                   build\board\MCUX_Config\clock_config.o
asctime                                           build\kernel\components\libc\compilers\common\time.o
asctime_r                                         build\kernel\components\libc\compilers\common\time.o
boot_data                                         build\xip\fsl_flexspi_nor_boot.o
clock                                             build\kernel\components\libc\compilers\common\time.o
clock_cpu_getres                                  build\kernel\components\drivers\cputime\cputime.o
clock_cpu_gettime                                 build\kernel\components\drivers\cputime\cputime.o
clock_cpu_microsecond                             build\kernel\components\drivers\cputime\cputime.o
clock_cpu_millisecond                             build\kernel\components\drivers\cputime\cputime.o
clock_cpu_setops                                  build\kernel\components\drivers\cputime\cputime.o
cmd_free                                          build\kernel\components\finsh\msh.o
cmd_ps                                            build\kernel\components\finsh\msh.o
ctime                                             build\kernel\components\libc\compilers\common\time.o
dcd_data                                          build\xip\evkmimxrt1064_sdram_ini_dcd.o
                                                  build\xip\fsl_flexspi_nor_boot.o
entry                                             build\kernel\src\components.o
                                                  libraries\MIMXRT1064\MIMXRT1064\gcc\startup_MIMXRT1064.o
exit                                              build\kernel\components\libc\compilers\newlib\syscalls.o
fclose                                            c:/users/yaxing.chen/downloads/env_released_1.2.0/env/tools/gnu_gcc/arm_gcc/mingw/bin/../lib/gcc/arm-none-eabi/5.4.1/../../../../arm-none-eabi/lib/armv7e-m/fpu/fpv5-d16\libc.a(lib_a-fclose.o)
                                                  build\kernel\components\libc\compilers\newlib\stdio.o
fflush                                            c:/users/yaxing.chen/downloads/env_released_1.2.0/env/tools/gnu_gcc/arm_gcc/mingw/bin/../lib/gcc/arm-none-eabi/5.4.1/../../../../arm-none-eabi/lib/armv7e-m/fpu/fpv5-d16\libc.a(lib_a-fflush.o)
                                                  c:/users/yaxing.chen/downloads/env_released_1.2.0/env/tools/gnu_gcc/arm_gcc/mingw/bin/../lib/gcc/arm-none-eabi/5.4.1/../../../../arm-none-eabi/lib/armv7e-m/fpu/fpv5-d16\libc.a(lib_a-refill.o)
fileno                                            c:/users/yaxing.chen/downloads/env_released_1.2.0/env/tools/gnu_gcc/arm_gcc/mingw/bin/../lib/gcc/arm-none-eabi/5.4.1/../../../../arm-none-eabi/lib/armv7e-m/fpu/fpv5-d16\libc.a(lib_a-fileno.o)
                                                  build\kernel\components\libc\compilers\newlib\syscalls.o
                                                  build\kernel\components\libc\compilers\newlib\stdio.o
finsh_get_device                                  build\kernel\components\finsh\shell.o
finsh_get_echo                                    build\kernel\components\finsh\shell.o
finsh_get_prompt                                  build\kernel\components\finsh\shell.o
finsh_get_prompt_mode                             build\kernel\components\finsh\shell.o
finsh_set_device                                  build\kernel\components\finsh\shell.o
finsh_set_echo                                    build\kernel\components\finsh\shell.o
finsh_set_prompt                                  build\kernel\components\finsh\shell.o
finsh_set_prompt_mode                             build\kernel\components\finsh\shell.o
finsh_system_function_init                        build\kernel\components\finsh\shell.o
finsh_system_init                                 build\kernel\components\finsh\shell.o
finsh_system_var_init                             build\kernel\components\finsh\shell.o
finsh_thread_entry                                build\kernel\components\finsh\shell.o
fiprintf                                          c:/users/yaxing.chen/downloads/env_released_1.2.0/env/tools/gnu_gcc/arm_gcc/mingw/bin/../lib/gcc/arm-none-eabi/5.4.1/../../../../arm-none-eabi/lib/armv7e-m/fpu/fpv5-d16\libc.a(lib_a-fiprintf.o)
                                                  c:/users/yaxing.chen/downloads/env_released_1.2.0/env/tools/gnu_gcc/arm_gcc/mingw/bin/../lib/gcc/arm-none-eabi/5.4.1/../../../../arm-none-eabi/lib/armv7e-m/fpu/fpv5-d16\libc.a(lib_a-assert.o)
flock                                             build\kernel\components\libc\compilers\newlib\syscalls.o
fopen                                             c:/users/yaxing.chen/downloads/env_released_1.2.0/env/tools/gnu_gcc/arm_gcc/mingw/bin/../lib/gcc/arm-none-eabi/5.4.1/../../../../arm-none-eabi/lib/armv7e-m/fpu/fpv5-d16\libc.a(lib_a-fopen.o)
                                                  build\kernel\components\libc\compilers\newlib\stdio.o
fputwc                                            c:/users/yaxing.chen/downloads/env_released_1.2.0/env/tools/gnu_gcc/arm_gcc/mingw/bin/../lib/gcc/arm-none-eabi/5.4.1/../../../../arm-none-eabi/lib/armv7e-m/fpu/fpv5-d16\libc.a(lib_a-fputwc.o)
free                                              c:/users/yaxing.chen/downloads/env_released_1.2.0/env/tools/gnu_gcc/arm_gcc/mingw/bin/../lib/gcc/arm-none-eabi/5.4.1/../../../../arm-none-eabi/lib/armv7e-m/fpu/fpv5-d16\libc.a(lib_a-malloc.o)
                                                  libraries\MIMXRT1064\MIMXRT1064\drivers\fsl_common.o
fseek                                             c:/users/yaxing.chen/downloads/env_released_1.2.0/env/tools/gnu_gcc/arm_gcc/mingw/bin/../lib/gcc/arm-none-eabi/5.4.1/../../../../arm-none-eabi/lib/armv7e-m/fpu/fpv5-d16\libc.a(lib_a-fseek.o)
fseeko                                            c:/users/yaxing.chen/downloads/env_released_1.2.0/env/tools/gnu_gcc/arm_gcc/mingw/bin/../lib/gcc/arm-none-eabi/5.4.1/../../../../arm-none-eabi/lib/armv7e-m/fpu/fpv5-d16\libc.a(lib_a-fseeko.o)
g_rtcXtalFreq                                     libraries\MIMXRT1064\MIMXRT1064\drivers\fsl_clock.o
                                                  build\board\MCUX_Config\clock_config.o
g_xtalFreq                                        libraries\MIMXRT1064\MIMXRT1064\drivers\fsl_clock.o
                                                  libraries\drivers\drv_uart.o
                                                  build\board\MCUX_Config\clock_config.o
gettimeofday                                      build\kernel\components\libc\compilers\common\time.o
getuid                                            build\kernel\components\libc\compilers\newlib\syscalls.o
gmtime                                            build\kernel\components\libc\compilers\common\time.o
gmtime_r                                          build\kernel\components\libc\compilers\common\time.o
heap_end                                          build\board\board.o
heap_start                                        build\board\board.o
hello                                             build\kernel\components\finsh\cmd.o
image_vector_table                                build\xip\fsl_flexspi_nor_boot.o
libc_get_time                                     build\kernel\components\libc\compilers\newlib\syscalls.o
libc_stdio_get_console                            build\kernel\components\libc\compilers\newlib\stdio.o
libc_stdio_set_console                            build\kernel\components\libc\compilers\newlib\stdio.o
libc_system_init                                  build\kernel\components\libc\compilers\newlib\libc.o
list                                              build\kernel\components\finsh\cmd.o
list_device                                       build\kernel\components\finsh\cmd.o
list_event                                        build\kernel\components\finsh\cmd.o
list_mailbox                                      build\kernel\components\finsh\cmd.o
list_memheap                                      build\kernel\components\finsh\cmd.o
                                                  build\kernel\components\finsh\msh.o
list_mempool                                      build\kernel\components\finsh\cmd.o
list_msgqueue                                     build\kernel\components\finsh\cmd.o
list_mutex                                        build\kernel\components\finsh\cmd.o
list_sem                                          build\kernel\components\finsh\cmd.o
list_thread                                       build\kernel\components\finsh\cmd.o
                                                  build\kernel\components\finsh\msh.o
                                                  build\kernel\libcpu\arm\cortex-m7\cpuport.o
                                                  build\kernel\src\scheduler.o
list_timer                                        build\kernel\components\finsh\cmd.o
localeconv                                        c:/users/yaxing.chen/downloads/env_released_1.2.0/env/tools/gnu_gcc/arm_gcc/mingw/bin/../lib/gcc/arm-none-eabi/5.4.1/../../../../arm-none-eabi/lib/armv7e-m/fpu/fpv5-d16\libc.a(lib_a-localeconv.o)
localtime                                         build\kernel\components\libc\compilers\common\time.o
localtime_r                                       build\kernel\components\libc\compilers\common\time.o
main                                              build\applications\main.o
                                                  build\kernel\src\components.o
main_thread_entry                                 build\kernel\src\components.o
malloc                                            c:/users/yaxing.chen/downloads/env_released_1.2.0/env/tools/gnu_gcc/arm_gcc/mingw/bin/../lib/gcc/arm-none-eabi/5.4.1/../../../../arm-none-eabi/lib/armv7e-m/fpu/fpv5-d16\libc.a(lib_a-malloc.o)
                                                  c:/users/yaxing.chen/downloads/env_released_1.2.0/env/tools/gnu_gcc/arm_gcc/mingw/bin/../lib/gcc/arm-none-eabi/5.4.1/../../../../arm-none-eabi/lib/armv7e-m/fpu/fpv5-d16\libc.a(lib_a-setvbuf.o)
                                                  libraries\MIMXRT1064\MIMXRT1064\drivers\fsl_common.o
mask_tab                                          libraries\drivers\drv_gpio.o
memchr                                            c:/users/yaxing.chen/downloads/env_released_1.2.0/env/tools/gnu_gcc/arm_gcc/mingw/bin/../lib/gcc/arm-none-eabi/5.4.1/../../../../arm-none-eabi/lib/armv7e-m/fpu/fpv5-d16\libc.a(lib_a-memchr.o)
                                                  c:/users/yaxing.chen/downloads/env_released_1.2.0/env/tools/gnu_gcc/arm_gcc/mingw/bin/../lib/gcc/arm-none-eabi/5.4.1/../../../../arm-none-eabi/lib/armv7e-m/fpu/fpv5-d16\libc.a(lib_a-svfiprintf.o)
                                                  c:/users/yaxing.chen/downloads/env_released_1.2.0/env/tools/gnu_gcc/arm_gcc/mingw/bin/../lib/gcc/arm-none-eabi/5.4.1/../../../../arm-none-eabi/lib/armv7e-m/fpu/fpv5-d16\libc.a(lib_a-fvwrite.o)
                                                  c:/users/yaxing.chen/downloads/env_released_1.2.0/env/tools/gnu_gcc/arm_gcc/mingw/bin/../lib/gcc/arm-none-eabi/5.4.1/../../../../arm-none-eabi/lib/armv7e-m/fpu/fpv5-d16\libc.a(lib_a-vfiprintf.o)
                                                  c:/users/yaxing.chen/downloads/env_released_1.2.0/env/tools/gnu_gcc/arm_gcc/mingw/bin/../lib/gcc/arm-none-eabi/5.4.1/../../../../arm-none-eabi/lib/armv7e-m/fpu/fpv5-d16\libc.a(lib_a-svfprintf.o)
memcmp                                            c:/users/yaxing.chen/downloads/env_released_1.2.0/env/tools/gnu_gcc/arm_gcc/mingw/bin/../lib/gcc/arm-none-eabi/5.4.1/../../../../arm-none-eabi/lib/armv7e-m/fpu/fpv5-d16\libc.a(lib_a-memcmp.o)
                                                  build\kernel\components\finsh\shell.o
memcpy                                            c:/users/yaxing.chen/downloads/env_released_1.2.0/env/tools/gnu_gcc/arm_gcc/mingw/bin/../lib/gcc/arm-none-eabi/5.4.1/../../../../arm-none-eabi/lib/armv7e-m/fpu/fpv5-d16\libc.a(lib_a-memcpy.o)
                                                  c:/users/yaxing.chen/downloads/env_released_1.2.0/env/tools/gnu_gcc/arm_gcc/mingw/bin/../lib/gcc/arm-none-eabi/5.4.1/../../../../arm-none-eabi/lib/armv7e-m/fpu/fpv5-d16\libc.a(lib_a-svfiprintf.o)
                                                  c:/users/yaxing.chen/downloads/env_released_1.2.0/env/tools/gnu_gcc/arm_gcc/mingw/bin/../lib/gcc/arm-none-eabi/5.4.1/../../../../arm-none-eabi/lib/armv7e-m/fpu/fpv5-d16\libc.a(lib_a-mprec.o)
                                                  c:/users/yaxing.chen/downloads/env_released_1.2.0/env/tools/gnu_gcc/arm_gcc/mingw/bin/../lib/gcc/arm-none-eabi/5.4.1/../../../../arm-none-eabi/lib/armv7e-m/fpu/fpv5-d16\libc.a(lib_a-fvwrite.o)
                                                  c:/users/yaxing.chen/downloads/env_released_1.2.0/env/tools/gnu_gcc/arm_gcc/mingw/bin/../lib/gcc/arm-none-eabi/5.4.1/../../../../arm-none-eabi/lib/armv7e-m/fpu/fpv5-d16\libc.a(lib_a-dtoa.o)
                                                  build\kernel\components\finsh\cmd.o
                                                  build\kernel\components\finsh\shell.o
                                                  build\kernel\components\drivers\src\ringbuffer.o
memmove                                           c:/users/yaxing.chen/downloads/env_released_1.2.0/env/tools/gnu_gcc/arm_gcc/mingw/bin/../lib/gcc/arm-none-eabi/5.4.1/../../../../arm-none-eabi/lib/armv7e-m/fpu/fpv5-d16\libc.a(lib_a-memmove.o)
                                                  c:/users/yaxing.chen/downloads/env_released_1.2.0/env/tools/gnu_gcc/arm_gcc/mingw/bin/../lib/gcc/arm-none-eabi/5.4.1/../../../../arm-none-eabi/lib/armv7e-m/fpu/fpv5-d16\libc.a(lib_a-svfiprintf.o)
                                                  c:/users/yaxing.chen/downloads/env_released_1.2.0/env/tools/gnu_gcc/arm_gcc/mingw/bin/../lib/gcc/arm-none-eabi/5.4.1/../../../../arm-none-eabi/lib/armv7e-m/fpu/fpv5-d16\libc.a(lib_a-fvwrite.o)
memset                                            c:/users/yaxing.chen/downloads/env_released_1.2.0/env/tools/gnu_gcc/arm_gcc/mingw/bin/../lib/gcc/arm-none-eabi/5.4.1/../../../../arm-none-eabi/lib/armv7e-m/fpu/fpv5-d16\libc.a(lib_a-memset.o)
                                                  c:/users/yaxing.chen/downloads/env_released_1.2.0/env/tools/gnu_gcc/arm_gcc/mingw/bin/../lib/gcc/arm-none-eabi/5.4.1/../../../../arm-none-eabi/lib/armv7e-m/fpu/fpv5-d16\libc.a(lib_a-fseeko.o)
                                                  c:/users/yaxing.chen/downloads/env_released_1.2.0/env/tools/gnu_gcc/arm_gcc/mingw/bin/../lib/gcc/arm-none-eabi/5.4.1/../../../../arm-none-eabi/lib/armv7e-m/fpu/fpv5-d16\libc.a(lib_a-findfp.o)
                                                  libraries\MIMXRT1064\MIMXRT1064\drivers\fsl_lpuart.o
                                                  build\kernel\components\finsh\msh.o
                                                  build\kernel\components\finsh\shell.o
mktime                                            build\kernel\components\libc\compilers\common\time.o
msh_auto_complete                                 build\kernel\components\finsh\msh.o
                                                  build\kernel\components\finsh\shell.o
msh_exec                                          build\kernel\components\finsh\msh.o
                                                  build\kernel\components\finsh\shell.o
msh_help                                          build\kernel\components\finsh\msh.o
msh_is_used                                       build\kernel\components\finsh\msh.o
                                                  build\kernel\components\finsh\shell.o
qspiflash_config                                  build\xip\evkmimxrt1064_flexspi_nor_config.o
reboot                                            build\applications\main.o
reg_offset                                        libraries\drivers\drv_gpio.o
rt_application_init                               build\kernel\src\components.o
rt_assert_handler                                 build\kernel\src\kservice.o
                                                  libraries\drivers\drv_uart.o
                                                  build\kernel\components\libc\compilers\newlib\syscalls.o
                                                  build\kernel\components\libc\compilers\common\time.o
                                                  build\kernel\components\finsh\shell.o
                                                  build\kernel\components\drivers\src\workqueue.o
                                                  build\kernel\components\drivers\src\waitqueue.o
                                                  build\kernel\components\drivers\src\ringbuffer.o
                                                  build\kernel\components\drivers\src\ringblk_buf.o
                                                  build\kernel\components\drivers\src\pipe.o
                                                  build\kernel\components\drivers\src\dataqueue.o
                                                  build\kernel\components\drivers\src\completion.o
                                                  build\kernel\components\drivers\serial\serial.o
                                                  build\kernel\components\drivers\misc\pin.o
                                                  build\kernel\components\drivers\cputime\cputime.o
                                                  build\kernel\libcpu\arm\cortex-m7\cpuport.o
                                                  build\kernel\libcpu\arm\cortex-m7\cpu_cache.o
                                                  build\kernel\libcpu\arm\common\showmem.o
                                                  build\kernel\src\timer.o
                                                  build\kernel\src\thread.o
                                                  build\kernel\src\scheduler.o
                                                  build\kernel\src\object.o
                                                  build\kernel\src\mempool.o
                                                  build\kernel\src\memheap.o
                                                  build\kernel\src\ipc.o
                                                  build\kernel\src\idle.o
                                                  build\kernel\src\device.o
                                                  build\kernel\src\components.o
rt_assert_hook                                    build\kernel\src\kservice.o
rt_assert_set_hook                                build\kernel\src\kservice.o
rt_calloc                                         build\kernel\src\memheap.o
                                                  build\kernel\components\libc\compilers\newlib\syscalls.o
                                                  build\kernel\components\finsh\shell.o
rt_completion_done                                build\kernel\components\drivers\src\completion.o
                                                  build\kernel\components\drivers\serial\serial.o
rt_completion_init                                build\kernel\components\drivers\src\completion.o
                                                  build\kernel\components\drivers\serial\serial.o
rt_completion_wait                                build\kernel\components\drivers\src\completion.o
                                                  build\kernel\components\drivers\serial\serial.o
rt_components_board_init                          build\kernel\src\components.o
                                                  build\board\board.o
rt_components_init                                build\kernel\src\components.o
rt_console_get_device                             build\kernel\src\kservice.o
                                                  build\kernel\components\libc\compilers\newlib\syscalls.o
                                                  build\kernel\components\finsh\shell.o
rt_console_set_device                             build\kernel\src\kservice.o
                                                  build\board\board.o
rt_critical_level                                 build\kernel\src\scheduler.o
rt_current_priority                               build\kernel\src\scheduler.o
rt_current_thread                                 build\kernel\src\scheduler.o
                                                  build\kernel\src\thread.o
rt_data_queue_deinit                              build\kernel\components\drivers\src\dataqueue.o
rt_data_queue_init                                build\kernel\components\drivers\src\dataqueue.o
rt_data_queue_peak                                build\kernel\components\drivers\src\dataqueue.o
rt_data_queue_pop                                 build\kernel\components\drivers\src\dataqueue.o
rt_data_queue_push                                build\kernel\components\drivers\src\dataqueue.o
rt_data_queue_reset                               build\kernel\components\drivers\src\dataqueue.o
rt_delayed_work_init                              build\kernel\components\drivers\src\workqueue.o
rt_device_close                                   build\kernel\src\device.o
                                                  build\kernel\components\finsh\shell.o
                                                  build\kernel\src\kservice.o
rt_device_control                                 build\kernel\src\device.o
                                                  build\kernel\components\libc\compilers\newlib\syscalls.o
                                                  build\kernel\components\libc\compilers\common\time.o
rt_device_create                                  build\kernel\src\device.o
rt_device_destroy                                 build\kernel\src\device.o
rt_device_find                                    build\kernel\src\device.o
                                                  build\kernel\components\libc\compilers\newlib\syscalls.o
                                                  build\kernel\components\libc\compilers\common\time.o
                                                  build\kernel\components\finsh\shell.o
                                                  build\kernel\components\drivers\src\pipe.o
                                                  build\kernel\src\kservice.o
rt_device_init                                    build\kernel\src\device.o
rt_device_init_all                                build\kernel\src\device.o
rt_device_open                                    build\kernel\src\device.o
                                                  build\kernel\components\finsh\shell.o
                                                  build\kernel\src\kservice.o
rt_device_pin_register                            build\kernel\components\drivers\misc\pin.o
                                                  libraries\drivers\drv_gpio.o
rt_device_read                                    build\kernel\src\device.o
                                                  build\kernel\components\finsh\shell.o
rt_device_register                                build\kernel\src\device.o
                                                  build\kernel\components\drivers\src\pipe.o
                                                  build\kernel\components\drivers\serial\serial.o
                                                  build\kernel\components\drivers\misc\pin.o
rt_device_set_rx_indicate                         build\kernel\src\device.o
                                                  build\kernel\components\finsh\shell.o
rt_device_set_tx_complete                         build\kernel\src\device.o
rt_device_unregister                              build\kernel\src\device.o
                                                  build\kernel\components\drivers\src\pipe.o
rt_device_write                                   build\kernel\src\device.o
                                                  build\kernel\components\libc\compilers\newlib\syscalls.o
                                                  build\kernel\src\kservice.o
rt_enter_critical                                 build\kernel\src\scheduler.o
                                                  build\kernel\components\drivers\src\workqueue.o
                                                  build\kernel\components\drivers\src\dataqueue.o
                                                  build\kernel\src\thread.o
                                                  build\kernel\src\object.o
                                                  build\kernel\src\idle.o
                                                  build\kernel\src\device.o
rt_event_control                                  build\kernel\src\ipc.o
rt_event_create                                   build\kernel\src\ipc.o
rt_event_delete                                   build\kernel\src\ipc.o
rt_event_detach                                   build\kernel\src\ipc.o
rt_event_init                                     build\kernel\src\ipc.o
rt_event_recv                                     build\kernel\src\ipc.o
rt_event_send                                     build\kernel\src\ipc.o
rt_exit_critical                                  build\kernel\src\scheduler.o
                                                  build\kernel\components\drivers\src\workqueue.o
                                                  build\kernel\components\drivers\src\dataqueue.o
                                                  build\kernel\src\thread.o
                                                  build\kernel\src\object.o
                                                  build\kernel\src\idle.o
                                                  build\kernel\src\device.o
rt_free                                           build\kernel\src\memheap.o
                                                  build\kernel\components\libc\compilers\newlib\syscalls.o
                                                  build\kernel\components\finsh\shell.o
                                                  build\kernel\components\drivers\src\workqueue.o
                                                  build\kernel\components\drivers\src\ringbuffer.o
                                                  build\kernel\components\drivers\src\ringblk_buf.o
                                                  build\kernel\components\drivers\src\pipe.o
                                                  build\kernel\components\drivers\src\dataqueue.o
                                                  build\kernel\components\drivers\serial\serial.o
                                                  build\kernel\src\object.o
                                                  build\kernel\src\mempool.o
                                                  build\kernel\src\kservice.o
                                                  build\kernel\src\ipc.o
                                                  build\kernel\src\idle.o
                                                  build\kernel\src\device.o
rt_free_align                                     build\kernel\src\kservice.o
rt_get_errno                                      build\kernel\src\kservice.o
rt_hw_backtrace                                   build\kernel\libcpu\arm\common\backtrace.o
rt_hw_board_init                                  build\board\board.o
                                                  build\kernel\src\components.o
rt_hw_console_output                              build\kernel\src\kservice.o
rt_hw_context_switch                              build\kernel\libcpu\arm\cortex-m7\context_gcc.o
                                                  build\kernel\src\scheduler.o
rt_hw_context_switch_interrupt                    build\kernel\libcpu\arm\cortex-m7\context_gcc.o
                                                  build\kernel\src\scheduler.o
rt_hw_context_switch_to                           build\kernel\libcpu\arm\cortex-m7\context_gcc.o
                                                  build\kernel\src\scheduler.o
rt_hw_cpu_dcache_disable                          build\kernel\libcpu\arm\cortex-m7\cpu_cache.o
rt_hw_cpu_dcache_enable                           build\kernel\libcpu\arm\cortex-m7\cpu_cache.o
rt_hw_cpu_dcache_ops                              build\kernel\libcpu\arm\cortex-m7\cpu_cache.o
rt_hw_cpu_dcache_status                           build\kernel\libcpu\arm\cortex-m7\cpu_cache.o
rt_hw_cpu_icache_disable                          build\kernel\libcpu\arm\cortex-m7\cpu_cache.o
rt_hw_cpu_icache_enable                           build\kernel\libcpu\arm\cortex-m7\cpu_cache.o
rt_hw_cpu_icache_ops                              build\kernel\libcpu\arm\cortex-m7\cpu_cache.o
rt_hw_cpu_icache_status                           build\kernel\libcpu\arm\cortex-m7\cpu_cache.o
rt_hw_cpu_reset                                   build\kernel\libcpu\arm\cortex-m7\cpuport.o
rt_hw_cpu_shutdown                                build\kernel\libcpu\arm\cortex-m7\cpuport.o
rt_hw_exception_install                           build\kernel\libcpu\arm\cortex-m7\cpuport.o
rt_hw_hard_fault_exception                        build\kernel\libcpu\arm\cortex-m7\cpuport.o
                                                  build\kernel\libcpu\arm\cortex-m7\context_gcc.o
rt_hw_interrupt_disable                           build\kernel\libcpu\arm\cortex-m7\context_gcc.o
                                                  libraries\drivers\drv_gpio.o
                                                  build\kernel\components\finsh\cmd.o
                                                  build\kernel\components\drivers\src\workqueue.o
                                                  build\kernel\components\drivers\src\waitqueue.o
                                                  build\kernel\components\drivers\src\ringblk_buf.o
                                                  build\kernel\components\drivers\src\dataqueue.o
                                                  build\kernel\components\drivers\src\completion.o
                                                  build\kernel\components\drivers\serial\serial.o
                                                  build\kernel\src\timer.o
                                                  build\kernel\src\thread.o
                                                  build\kernel\src\scheduler.o
                                                  build\kernel\src\object.o
                                                  build\kernel\src\mempool.o
                                                  build\kernel\src\irq.o
                                                  build\kernel\src\ipc.o
                                                  build\kernel\src\idle.o
                                                  build\kernel\src\components.o
                                                  build\kernel\src\clock.o
rt_hw_interrupt_enable                            build\kernel\libcpu\arm\cortex-m7\context_gcc.o
                                                  libraries\drivers\drv_gpio.o
                                                  build\kernel\components\finsh\cmd.o
                                                  build\kernel\components\drivers\src\workqueue.o
                                                  build\kernel\components\drivers\src\waitqueue.o
                                                  build\kernel\components\drivers\src\ringblk_buf.o
                                                  build\kernel\components\drivers\src\dataqueue.o
                                                  build\kernel\components\drivers\src\completion.o
                                                  build\kernel\components\drivers\serial\serial.o
                                                  build\kernel\src\timer.o
                                                  build\kernel\src\thread.o
                                                  build\kernel\src\scheduler.o
                                                  build\kernel\src\object.o
                                                  build\kernel\src\mempool.o
                                                  build\kernel\src\irq.o
                                                  build\kernel\src\ipc.o
                                                  build\kernel\src\idle.o
                                                  build\kernel\src\clock.o
rt_hw_interrupt_thread_switch                     build\kernel\libcpu\arm\cortex-m7\context_gcc.o
rt_hw_pin_init                                    libraries\drivers\drv_gpio.o
rt_hw_serial_isr                                  build\kernel\components\drivers\serial\serial.o
                                                  libraries\drivers\drv_uart.o
rt_hw_serial_register                             build\kernel\components\drivers\serial\serial.o
                                                  libraries\drivers\drv_uart.o
rt_hw_show_memory                                 build\kernel\libcpu\arm\common\showmem.o
rt_hw_stack_init                                  build\kernel\libcpu\arm\cortex-m7\cpuport.o
                                                  build\kernel\src\thread.o
rt_hw_uart_init                                   libraries\drivers\drv_uart.o
rt_interrupt_enter                                build\kernel\src\irq.o
                                                  libraries\drivers\drv_uart.o
                                                  libraries\drivers\drv_gpio.o
                                                  build\board\board.o
rt_interrupt_enter_sethook                        build\kernel\src\irq.o
rt_interrupt_from_thread                          build\kernel\libcpu\arm\cortex-m7\cpuport.o
                                                  build\kernel\libcpu\arm\cortex-m7\context_gcc.o
rt_interrupt_get_nest                             build\kernel\src\irq.o
                                                  build\kernel\components\drivers\src\waitqueue.o
                                                  build\kernel\components\drivers\src\dataqueue.o
                                                  build\kernel\components\drivers\src\completion.o
                                                  build\kernel\src\object.o
                                                  build\kernel\src\mempool.o
                                                  build\kernel\src\kservice.o
                                                  build\kernel\src\ipc.o
                                                  build\kernel\src\idle.o
rt_interrupt_leave                                build\kernel\src\irq.o
                                                  libraries\drivers\drv_uart.o
                                                  libraries\drivers\drv_gpio.o
                                                  build\board\board.o
rt_interrupt_leave_sethook                        build\kernel\src\irq.o
rt_interrupt_nest                                 build\kernel\src\irq.o
                                                  build\kernel\src\scheduler.o
rt_interrupt_to_thread                            build\kernel\libcpu\arm\cortex-m7\cpuport.o
                                                  build\kernel\libcpu\arm\cortex-m7\context_gcc.o
rt_kprintf                                        build\kernel\src\kservice.o
                                                  build\kernel\components\libc\compilers\newlib\syscalls.o
                                                  build\kernel\components\finsh\msh.o
                                                  build\kernel\components\finsh\cmd.o
                                                  build\kernel\components\finsh\shell.o
                                                  build\kernel\components\drivers\src\waitqueue.o
                                                  build\kernel\components\drivers\src\dataqueue.o
                                                  build\kernel\components\drivers\src\completion.o
                                                  build\kernel\components\drivers\serial\serial.o
                                                  build\kernel\libcpu\arm\cortex-m7\cpuport.o
                                                  build\kernel\libcpu\arm\common\showmem.o
                                                  build\kernel\libcpu\arm\common\backtrace.o
                                                  build\kernel\src\scheduler.o
                                                  build\kernel\src\object.o
                                                  build\kernel\src\mempool.o
                                                  build\kernel\src\ipc.o
                                                  build\kernel\src\idle.o
                                                  build\kernel\src\device.o
rt_kputs                                          build\kernel\src\kservice.o
rt_malloc                                         build\kernel\src\memheap.o
                                                  build\kernel\components\libc\compilers\newlib\syscalls.o
                                                  build\kernel\components\finsh\shell.o
                                                  build\kernel\components\drivers\src\workqueue.o
                                                  build\kernel\components\drivers\src\ringbuffer.o
                                                  build\kernel\components\drivers\src\ringblk_buf.o
                                                  build\kernel\components\drivers\src\pipe.o
                                                  build\kernel\components\drivers\src\dataqueue.o
                                                  build\kernel\components\drivers\serial\serial.o
                                                  build\kernel\src\thread.o
                                                  build\kernel\src\object.o
                                                  build\kernel\src\mempool.o
                                                  build\kernel\src\kservice.o
                                                  build\kernel\src\ipc.o
                                                  build\kernel\src\device.o
rt_malloc_align                                   build\kernel\src\kservice.o
rt_mb_control                                     build\kernel\src\ipc.o
rt_mb_create                                      build\kernel\src\ipc.o
rt_mb_delete                                      build\kernel\src\ipc.o
rt_mb_detach                                      build\kernel\src\ipc.o
rt_mb_init                                        build\kernel\src\ipc.o
rt_mb_recv                                        build\kernel\src\ipc.o
rt_mb_send                                        build\kernel\src\ipc.o
rt_mb_send_wait                                   build\kernel\src\ipc.o
rt_memcmp                                         build\kernel\src\kservice.o
rt_memcpy                                         build\kernel\src\kservice.o
                                                  build\kernel\src\memheap.o
                                                  build\kernel\src\ipc.o
rt_memheap_alloc                                  build\kernel\src\memheap.o
rt_memheap_detach                                 build\kernel\src\memheap.o
rt_memheap_free                                   build\kernel\src\memheap.o
rt_memheap_init                                   build\kernel\src\memheap.o
rt_memheap_realloc                                build\kernel\src\memheap.o
rt_memmove                                        build\kernel\src\kservice.o
                                                  build\kernel\components\finsh\shell.o
rt_memset                                         build\kernel\src\kservice.o
                                                  build\kernel\components\drivers\src\pipe.o
                                                  build\kernel\components\drivers\serial\serial.o
                                                  build\kernel\src\thread.o
                                                  build\kernel\src\object.o
                                                  build\kernel\src\memheap.o
                                                  build\kernel\src\device.o
rt_mp_alloc                                       build\kernel\src\mempool.o
rt_mp_alloc_sethook                               build\kernel\src\mempool.o
rt_mp_create                                      build\kernel\src\mempool.o
rt_mp_delete                                      build\kernel\src\mempool.o
rt_mp_detach                                      build\kernel\src\mempool.o
rt_mp_free                                        build\kernel\src\mempool.o
rt_mp_free_sethook                                build\kernel\src\mempool.o
rt_mp_init                                        build\kernel\src\mempool.o
rt_mq_control                                     build\kernel\src\ipc.o
rt_mq_create                                      build\kernel\src\ipc.o
rt_mq_delete                                      build\kernel\src\ipc.o
rt_mq_detach                                      build\kernel\src\ipc.o
rt_mq_init                                        build\kernel\src\ipc.o
rt_mq_recv                                        build\kernel\src\ipc.o
rt_mq_send                                        build\kernel\src\ipc.o
rt_mq_send_wait                                   build\kernel\src\ipc.o
rt_mq_urgent                                      build\kernel\src\ipc.o
rt_mutex_control                                  build\kernel\src\ipc.o
rt_mutex_create                                   build\kernel\src\ipc.o
rt_mutex_delete                                   build\kernel\src\ipc.o
rt_mutex_detach                                   build\kernel\src\ipc.o
                                                  build\kernel\components\drivers\src\pipe.o
rt_mutex_init                                     build\kernel\src\ipc.o
                                                  build\kernel\components\drivers\src\pipe.o
rt_mutex_release                                  build\kernel\src\ipc.o
                                                  build\kernel\components\drivers\src\pipe.o
rt_mutex_take                                     build\kernel\src\ipc.o
                                                  build\kernel\components\drivers\src\pipe.o
rt_object_allocate                                build\kernel\src\object.o
                                                  build\kernel\src\timer.o
                                                  build\kernel\src\thread.o
                                                  build\kernel\src\mempool.o
                                                  build\kernel\src\ipc.o
rt_object_attach_sethook                          build\kernel\src\object.o
rt_object_delete                                  build\kernel\src\object.o
                                                  build\kernel\src\timer.o
                                                  build\kernel\src\thread.o
                                                  build\kernel\src\mempool.o
                                                  build\kernel\src\ipc.o
                                                  build\kernel\src\idle.o
rt_object_detach                                  build\kernel\src\object.o
                                                  build\kernel\src\timer.o
                                                  build\kernel\src\thread.o
                                                  build\kernel\src\mempool.o
                                                  build\kernel\src\memheap.o
                                                  build\kernel\src\ipc.o
                                                  build\kernel\src\idle.o
                                                  build\kernel\src\device.o
rt_object_detach_sethook                          build\kernel\src\object.o
rt_object_find                                    build\kernel\src\object.o
rt_object_get_information                         build\kernel\src\object.o
                                                  build\kernel\components\finsh\cmd.o
                                                  build\kernel\src\thread.o
                                                  build\kernel\src\memheap.o
                                                  build\kernel\src\device.o
rt_object_get_length                              build\kernel\src\object.o
rt_object_get_pointers                            build\kernel\src\object.o
rt_object_get_type                                build\kernel\src\object.o
                                                  build\kernel\src\timer.o
                                                  build\kernel\src\thread.o
                                                  build\kernel\src\mempool.o
                                                  build\kernel\src\memheap.o
                                                  build\kernel\src\ipc.o
                                                  build\kernel\src\device.o
rt_object_init                                    build\kernel\src\object.o
                                                  build\kernel\src\timer.o
                                                  build\kernel\src\thread.o
                                                  build\kernel\src\mempool.o
                                                  build\kernel\src\memheap.o
                                                  build\kernel\src\ipc.o
                                                  build\kernel\src\device.o
rt_object_is_systemobject                         build\kernel\src\object.o
                                                  build\kernel\src\timer.o
                                                  build\kernel\src\thread.o
                                                  build\kernel\src\mempool.o
                                                  build\kernel\src\memheap.o
                                                  build\kernel\src\ipc.o
                                                  build\kernel\src\idle.o
                                                  build\kernel\src\device.o
rt_object_put_hook                                build\kernel\src\object.o
                                                  build\kernel\src\timer.o
                                                  build\kernel\src\ipc.o
rt_object_put_sethook                             build\kernel\src\object.o
rt_object_take_hook                               build\kernel\src\object.o
                                                  build\kernel\src\timer.o
                                                  build\kernel\src\ipc.o
rt_object_take_sethook                            build\kernel\src\object.o
rt_object_trytake_hook                            build\kernel\src\object.o
                                                  build\kernel\src\ipc.o
rt_object_trytake_sethook                         build\kernel\src\object.o
rt_pin_attach_irq                                 build\kernel\components\drivers\misc\pin.o
rt_pin_detach_irq                                 build\kernel\components\drivers\misc\pin.o
rt_pin_get                                        build\kernel\components\drivers\misc\pin.o
rt_pin_irq_enable                                 build\kernel\components\drivers\misc\pin.o
rt_pin_mode                                       build\kernel\components\drivers\misc\pin.o
                                                  build\applications\main.o
rt_pin_read                                       build\kernel\components\drivers\misc\pin.o
rt_pin_write                                      build\kernel\components\drivers\misc\pin.o
                                                  build\applications\main.o
rt_pipe_close                                     build\kernel\components\drivers\src\pipe.o
rt_pipe_control                                   build\kernel\components\drivers\src\pipe.o
rt_pipe_create                                    build\kernel\components\drivers\src\pipe.o
rt_pipe_delete                                    build\kernel\components\drivers\src\pipe.o
rt_pipe_open                                      build\kernel\components\drivers\src\pipe.o
rt_pipe_read                                      build\kernel\components\drivers\src\pipe.o
rt_pipe_write                                     build\kernel\components\drivers\src\pipe.o
rt_rbb_blk_alloc                                  build\kernel\components\drivers\src\ringblk_buf.o
rt_rbb_blk_buf                                    build\kernel\components\drivers\src\ringblk_buf.o
rt_rbb_blk_free                                   build\kernel\components\drivers\src\ringblk_buf.o
rt_rbb_blk_get                                    build\kernel\components\drivers\src\ringblk_buf.o
rt_rbb_blk_put                                    build\kernel\components\drivers\src\ringblk_buf.o
rt_rbb_blk_queue_buf                              build\kernel\components\drivers\src\ringblk_buf.o
rt_rbb_blk_queue_free                             build\kernel\components\drivers\src\ringblk_buf.o
rt_rbb_blk_queue_get                              build\kernel\components\drivers\src\ringblk_buf.o
rt_rbb_blk_queue_len                              build\kernel\components\drivers\src\ringblk_buf.o
rt_rbb_blk_size                                   build\kernel\components\drivers\src\ringblk_buf.o
rt_rbb_create                                     build\kernel\components\drivers\src\ringblk_buf.o
rt_rbb_destroy                                    build\kernel\components\drivers\src\ringblk_buf.o
rt_rbb_get_buf_size                               build\kernel\components\drivers\src\ringblk_buf.o
rt_rbb_init                                       build\kernel\components\drivers\src\ringblk_buf.o
rt_rbb_next_blk_queue_len                         build\kernel\components\drivers\src\ringblk_buf.o
rt_realloc                                        build\kernel\src\memheap.o
                                                  build\kernel\components\libc\compilers\newlib\syscalls.o
rt_ringbuffer_create                              build\kernel\components\drivers\src\ringbuffer.o
                                                  build\kernel\components\drivers\src\pipe.o
rt_ringbuffer_data_len                            build\kernel\components\drivers\src\ringbuffer.o
rt_ringbuffer_destroy                             build\kernel\components\drivers\src\ringbuffer.o
                                                  build\kernel\components\drivers\src\pipe.o
rt_ringbuffer_get                                 build\kernel\components\drivers\src\ringbuffer.o
                                                  build\kernel\components\drivers\src\pipe.o
rt_ringbuffer_getchar                             build\kernel\components\drivers\src\ringbuffer.o
rt_ringbuffer_init                                build\kernel\components\drivers\src\ringbuffer.o
rt_ringbuffer_put                                 build\kernel\components\drivers\src\ringbuffer.o
                                                  build\kernel\components\drivers\src\pipe.o
rt_ringbuffer_put_force                           build\kernel\components\drivers\src\ringbuffer.o
rt_ringbuffer_putchar                             build\kernel\components\drivers\src\ringbuffer.o
rt_ringbuffer_putchar_force                       build\kernel\components\drivers\src\ringbuffer.o
rt_ringbuffer_reset                               build\kernel\components\drivers\src\ringbuffer.o
rt_schedule                                       build\kernel\src\scheduler.o
                                                  build\kernel\components\libc\compilers\newlib\syscalls.o
                                                  build\kernel\components\drivers\src\workqueue.o
                                                  build\kernel\components\drivers\src\waitqueue.o
                                                  build\kernel\components\drivers\src\dataqueue.o
                                                  build\kernel\components\drivers\src\completion.o
                                                  build\kernel\src\thread.o
                                                  build\kernel\src\mempool.o
                                                  build\kernel\src\ipc.o
rt_schedule_insert_thread                         build\kernel\src\scheduler.o
                                                  build\kernel\src\thread.o
rt_schedule_remove_thread                         build\kernel\src\scheduler.o
                                                  build\kernel\src\thread.o
rt_scheduler_sethook                              build\kernel\src\scheduler.o
rt_sem_control                                    build\kernel\src\ipc.o
rt_sem_create                                     build\kernel\src\ipc.o
rt_sem_delete                                     build\kernel\src\ipc.o
rt_sem_detach                                     build\kernel\src\ipc.o
rt_sem_init                                       build\kernel\src\ipc.o
                                                  build\kernel\components\finsh\shell.o
                                                  build\kernel\components\drivers\src\workqueue.o
                                                  build\kernel\src\memheap.o
rt_sem_release                                    build\kernel\src\ipc.o
                                                  build\kernel\components\finsh\shell.o
                                                  build\kernel\components\drivers\src\workqueue.o
                                                  build\kernel\src\memheap.o
rt_sem_take                                       build\kernel\src\ipc.o
                                                  build\kernel\components\finsh\shell.o
                                                  build\kernel\components\drivers\src\workqueue.o
                                                  build\kernel\src\memheap.o
rt_sem_trytake                                    build\kernel\src\ipc.o
                                                  build\kernel\components\drivers\src\workqueue.o
rt_set_errno                                      build\kernel\src\kservice.o
                                                  build\kernel\components\drivers\src\pipe.o
                                                  build\kernel\components\drivers\cputime\cputime.o
                                                  build\kernel\src\mempool.o
                                                  build\kernel\src\memheap.o
                                                  build\kernel\src\device.o
rt_show_version                                   build\kernel\src\kservice.o
                                                  build\kernel\components\finsh\cmd.o
                                                  build\kernel\src\components.o
rt_snprintf                                       build\kernel\src\kservice.o
rt_sprintf                                        build\kernel\src\kservice.o
                                                  build\kernel\src\idle.o
rt_strcasecmp                                     build\kernel\src\kservice.o
rt_strcmp                                         build\kernel\src\kservice.o
rt_strdup                                         build\kernel\src\kservice.o
rt_strlen                                         build\kernel\src\kservice.o
rt_strncmp                                        build\kernel\src\kservice.o
                                                  build\kernel\src\thread.o
                                                  build\kernel\src\object.o
                                                  build\kernel\src\device.o
rt_strncpy                                        build\kernel\src\kservice.o
                                                  build\kernel\components\finsh\msh.o
                                                  build\kernel\src\object.o
rt_strnlen                                        build\kernel\src\kservice.o
rt_strstr                                         build\kernel\src\kservice.o
rt_system_heap_init                               build\kernel\src\memheap.o
                                                  build\board\board.o
rt_system_object_init                             build\kernel\src\object.o
rt_system_scheduler_init                          build\kernel\src\scheduler.o
                                                  build\kernel\src\components.o
rt_system_scheduler_start                         build\kernel\src\scheduler.o
                                                  build\kernel\src\components.o
rt_system_tick_init                               build\kernel\src\clock.o
rt_system_timer_init                              build\kernel\src\timer.o
                                                  build\kernel\src\components.o
rt_system_timer_thread_init                       build\kernel\src\timer.o
                                                  build\kernel\src\components.o
rt_thread_control                                 build\kernel\src\thread.o
                                                  build\kernel\src\ipc.o
rt_thread_create                                  build\kernel\src\thread.o
                                                  build\kernel\components\finsh\shell.o
                                                  build\kernel\components\drivers\src\workqueue.o
                                                  build\kernel\src\components.o
rt_thread_defunct                                 build\kernel\src\scheduler.o
                                                  build\kernel\src\thread.o
                                                  build\kernel\src\idle.o
rt_thread_delay                                   build\kernel\src\thread.o
rt_thread_delay_until                             build\kernel\src\thread.o
rt_thread_delete                                  build\kernel\src\thread.o
                                                  build\kernel\components\drivers\src\workqueue.o
rt_thread_detach                                  build\kernel\src\thread.o
rt_thread_exit                                    build\kernel\src\thread.o
rt_thread_find                                    build\kernel\src\thread.o
rt_thread_idle_delhook                            build\kernel\src\idle.o
rt_thread_idle_excute                             build\kernel\src\idle.o
rt_thread_idle_gethandler                         build\kernel\src\idle.o
rt_thread_idle_init                               build\kernel\src\idle.o
                                                  build\kernel\src\components.o
rt_thread_idle_sethook                            build\kernel\src\idle.o
rt_thread_init                                    build\kernel\src\thread.o
                                                  build\kernel\src\idle.o
rt_thread_inited_sethook                          build\kernel\src\thread.o
rt_thread_mdelay                                  build\kernel\src\thread.o
                                                  build\applications\main.o
rt_thread_priority_table                          build\kernel\src\scheduler.o
rt_thread_ready_priority_group                    build\kernel\src\scheduler.o
rt_thread_resume                                  build\kernel\src\thread.o
                                                  build\kernel\components\drivers\src\workqueue.o
                                                  build\kernel\components\drivers\src\waitqueue.o
                                                  build\kernel\components\drivers\src\dataqueue.o
                                                  build\kernel\components\drivers\src\completion.o
                                                  build\kernel\src\mempool.o
                                                  build\kernel\src\ipc.o
rt_thread_resume_sethook                          build\kernel\src\thread.o
rt_thread_self                                    build\kernel\src\thread.o
                                                  build\kernel\components\libc\compilers\newlib\syscalls.o
                                                  build\kernel\components\drivers\src\workqueue.o
                                                  build\kernel\components\drivers\src\waitqueue.o
                                                  build\kernel\components\drivers\src\dataqueue.o
                                                  build\kernel\components\drivers\src\completion.o
                                                  build\kernel\libcpu\arm\cortex-m7\cpuport.o
                                                  build\kernel\src\mempool.o
                                                  build\kernel\src\kservice.o
                                                  build\kernel\src\ipc.o
                                                  build\kernel\src\device.o
                                                  build\kernel\src\clock.o
rt_thread_sleep                                   build\kernel\src\thread.o
rt_thread_startup                                 build\kernel\src\thread.o
                                                  build\kernel\components\finsh\shell.o
                                                  build\kernel\components\drivers\src\workqueue.o
                                                  build\kernel\src\idle.o
                                                  build\kernel\src\components.o
rt_thread_suspend                                 build\kernel\src\thread.o
                                                  build\kernel\components\libc\compilers\newlib\syscalls.o
                                                  build\kernel\components\drivers\src\workqueue.o
                                                  build\kernel\components\drivers\src\waitqueue.o
                                                  build\kernel\components\drivers\src\dataqueue.o
                                                  build\kernel\components\drivers\src\completion.o
                                                  build\kernel\src\mempool.o
                                                  build\kernel\src\ipc.o
rt_thread_suspend_sethook                         build\kernel\src\thread.o
rt_thread_switch_interrupt_flag                   build\kernel\libcpu\arm\cortex-m7\cpuport.o
                                                  build\kernel\libcpu\arm\cortex-m7\context_gcc.o
rt_thread_timeout                                 build\kernel\src\thread.o
rt_thread_yield                                   build\kernel\src\thread.o
                                                  build\kernel\src\clock.o
rt_tick_from_millisecond                          build\kernel\src\clock.o
                                                  build\kernel\components\drivers\src\waitqueue.o
                                                  build\kernel\src\thread.o
rt_tick_get                                       build\kernel\src\clock.o
                                                  build\kernel\components\libc\compilers\newlib\syscalls.o
                                                  build\kernel\components\libc\compilers\common\time.o
                                                  build\kernel\components\finsh\cmd.o
                                                  build\kernel\src\timer.o
                                                  build\kernel\src\thread.o
                                                  build\kernel\src\mempool.o
                                                  build\kernel\src\ipc.o
rt_tick_increase                                  build\kernel\src\clock.o
                                                  build\board\board.o
rt_tick_set                                       build\kernel\src\clock.o
rt_timer_check                                    build\kernel\src\timer.o
                                                  build\kernel\src\clock.o
rt_timer_control                                  build\kernel\src\timer.o
                                                  build\kernel\components\drivers\src\waitqueue.o
                                                  build\kernel\components\drivers\src\dataqueue.o
                                                  build\kernel\components\drivers\src\completion.o
                                                  build\kernel\src\thread.o
                                                  build\kernel\src\mempool.o
                                                  build\kernel\src\ipc.o
rt_timer_create                                   build\kernel\src\timer.o
rt_timer_delete                                   build\kernel\src\timer.o
rt_timer_detach                                   build\kernel\src\timer.o
                                                  build\kernel\components\drivers\src\workqueue.o
                                                  build\kernel\src\thread.o
rt_timer_enter_sethook                            build\kernel\src\timer.o
rt_timer_exit_sethook                             build\kernel\src\timer.o
rt_timer_init                                     build\kernel\src\timer.o
                                                  build\kernel\components\drivers\src\workqueue.o
                                                  build\kernel\src\thread.o
rt_timer_next_timeout_tick                        build\kernel\src\timer.o
rt_timer_start                                    build\kernel\src\timer.o
                                                  build\kernel\components\drivers\src\workqueue.o
                                                  build\kernel\components\drivers\src\waitqueue.o
                                                  build\kernel\components\drivers\src\dataqueue.o
                                                  build\kernel\components\drivers\src\completion.o
                                                  build\kernel\src\thread.o
                                                  build\kernel\src\mempool.o
                                                  build\kernel\src\ipc.o
rt_timer_stop                                     build\kernel\src\timer.o
                                                  build\kernel\components\drivers\src\workqueue.o
                                                  build\kernel\src\thread.o
rt_vsnprintf                                      build\kernel\src\kservice.o
rt_vsprintf                                       build\kernel\src\kservice.o
rt_workqueue_cancel_all_work                      build\kernel\components\drivers\src\workqueue.o
rt_workqueue_cancel_work                          build\kernel\components\drivers\src\workqueue.o
rt_workqueue_cancel_work_sync                     build\kernel\components\drivers\src\workqueue.o
rt_workqueue_create                               build\kernel\components\drivers\src\workqueue.o
rt_workqueue_critical_work                        build\kernel\components\drivers\src\workqueue.o
rt_workqueue_destroy                              build\kernel\components\drivers\src\workqueue.o
rt_workqueue_dowork                               build\kernel\components\drivers\src\workqueue.o
rt_workqueue_submit_work                          build\kernel\components\drivers\src\workqueue.o
rt_wqueue_add                                     build\kernel\components\drivers\src\waitqueue.o
rt_wqueue_remove                                  build\kernel\components\drivers\src\waitqueue.o
rt_wqueue_wait                                    build\kernel\components\drivers\src\waitqueue.o
rt_wqueue_wakeup                                  build\kernel\components\drivers\src\waitqueue.o
rtthread_startup                                  build\kernel\src\components.o
setlocale                                         c:/users/yaxing.chen/downloads/env_released_1.2.0/env/tools/gnu_gcc/arm_gcc/mingw/bin/../lib/gcc/arm-none-eabi/5.4.1/../../../../arm-none-eabi/lib/armv7e-m/fpu/fpv5-d16\libc.a(lib_a-locale.o)
setvbuf                                           c:/users/yaxing.chen/downloads/env_released_1.2.0/env/tools/gnu_gcc/arm_gcc/mingw/bin/../lib/gcc/arm-none-eabi/5.4.1/../../../../arm-none-eabi/lib/armv7e-m/fpu/fpv5-d16\libc.a(lib_a-setvbuf.o)
                                                  build\kernel\components\libc\compilers\newlib\stdio.o
shell                                             build\kernel\components\finsh\shell.o
snprintf                                          c:/users/yaxing.chen/downloads/env_released_1.2.0/env/tools/gnu_gcc/arm_gcc/mingw/bin/../lib/gcc/arm-none-eabi/5.4.1/../../../../arm-none-eabi/lib/armv7e-m/fpu/fpv5-d16\libc.a(lib_a-snprintf.o)
                                                  build\kernel\components\libc\compilers\newlib\stdio.o
strcat                                            c:/users/yaxing.chen/downloads/env_released_1.2.0/env/tools/gnu_gcc/arm_gcc/mingw/bin/../lib/gcc/arm-none-eabi/5.4.1/../../../../arm-none-eabi/lib/armv7e-m/fpu/fpv5-d16\libc.a(lib_a-strcat.o)
                                                  build\kernel\components\finsh\shell.o
strcmp                                            c:/users/yaxing.chen/downloads/env_released_1.2.0/env/tools/gnu_gcc/arm_gcc/mingw/bin/../lib/gcc/arm-none-eabi/5.4.1/../../../../arm-none-eabi/lib/armv7e-m/fpu/fpv5-d16\libc.a(lib_a-strcmp.o)
                                                  c:/users/yaxing.chen/downloads/env_released_1.2.0/env/tools/gnu_gcc/arm_gcc/mingw/bin/../lib/gcc/arm-none-eabi/5.4.1/../../../../arm-none-eabi/lib/armv7e-m/fpu/fpv5-d16\libc.a(lib_a-locale.o)
strcpy                                            c:/users/yaxing.chen/downloads/env_released_1.2.0/env/tools/gnu_gcc/arm_gcc/mingw/bin/../lib/gcc/arm-none-eabi/5.4.1/../../../../arm-none-eabi/lib/armv7e-m/fpu/fpv5-d16\libc.a(lib_a-strcpy.o)
                                                  c:/users/yaxing.chen/downloads/env_released_1.2.0/env/tools/gnu_gcc/arm_gcc/mingw/bin/../lib/gcc/arm-none-eabi/5.4.1/../../../../arm-none-eabi/lib/armv7e-m/fpu/fpv5-d16\libc.a(lib_a-strcat.o)
                                                  build\kernel\components\finsh\shell.o
strlen                                            c:/users/yaxing.chen/downloads/env_released_1.2.0/env/tools/gnu_gcc/arm_gcc/mingw/bin/../lib/gcc/arm-none-eabi/5.4.1/../../../../arm-none-eabi/lib/armv7e-m/fpu/fpv5-d16\libc.a(lib_a-strlen.o)
                                                  c:/users/yaxing.chen/downloads/env_released_1.2.0/env/tools/gnu_gcc/arm_gcc/mingw/bin/../lib/gcc/arm-none-eabi/5.4.1/../../../../arm-none-eabi/lib/armv7e-m/fpu/fpv5-d16\libc.a(lib_a-svfiprintf.o)
                                                  c:/users/yaxing.chen/downloads/env_released_1.2.0/env/tools/gnu_gcc/arm_gcc/mingw/bin/../lib/gcc/arm-none-eabi/5.4.1/../../../../arm-none-eabi/lib/armv7e-m/fpu/fpv5-d16\libc.a(lib_a-vfiprintf.o)
                                                  c:/users/yaxing.chen/downloads/env_released_1.2.0/env/tools/gnu_gcc/arm_gcc/mingw/bin/../lib/gcc/arm-none-eabi/5.4.1/../../../../arm-none-eabi/lib/armv7e-m/fpu/fpv5-d16\libc.a(lib_a-svfprintf.o)
                                                  build\kernel\components\finsh\msh.o
                                                  build\kernel\components\finsh\shell.o
strncmp                                           c:/users/yaxing.chen/downloads/env_released_1.2.0/env/tools/gnu_gcc/arm_gcc/mingw/bin/../lib/gcc/arm-none-eabi/5.4.1/../../../../arm-none-eabi/lib/armv7e-m/fpu/fpv5-d16\libc.a(lib_a-strncmp.o)
                                                  build\kernel\components\finsh\msh.o
                                                  build\kernel\components\finsh\cmd.o
strncpy                                           c:/users/yaxing.chen/downloads/env_released_1.2.0/env/tools/gnu_gcc/arm_gcc/mingw/bin/../lib/gcc/arm-none-eabi/5.4.1/../../../../arm-none-eabi/lib/armv7e-m/fpu/fpv5-d16\libc.a(lib_a-strncpy.o)
                                                  build\kernel\components\finsh\shell.o
sysPllConfig_BOARD_BootClockRUN                   build\board\MCUX_Config\clock_config.o
time                                              build\kernel\components\libc\compilers\common\time.o
umask                                             build\kernel\components\libc\compilers\newlib\syscalls.o
usb1PllConfig_BOARD_BootClockRUN                  build\board\MCUX_Config\clock_config.o
version                                           build\kernel\components\finsh\cmd.o
vfiprintf                                         c:/users/yaxing.chen/downloads/env_released_1.2.0/env/tools/gnu_gcc/arm_gcc/mingw/bin/../lib/gcc/arm-none-eabi/5.4.1/../../../../arm-none-eabi/lib/armv7e-m/fpu/fpv5-d16\libc.a(lib_a-vfiprintf.o)
wcrtomb                                           c:/users/yaxing.chen/downloads/env_released_1.2.0/env/tools/gnu_gcc/arm_gcc/mingw/bin/../lib/gcc/arm-none-eabi/5.4.1/../../../../arm-none-eabi/lib/armv7e-m/fpu/fpv5-d16\libc.a(lib_a-wcrtomb.o)
